; Listing generated by Microsoft (R) Optimizing Compiler Version 19.34.31942.0 

include listing.inc

INCLUDELIB MSVCRTD
INCLUDELIB OLDNAMES

PUBLIC	?day@@3HA					; day
PUBLIC	?month@@3HA					; month
PUBLIC	?year@@3HA					; year
PUBLIC	?twelve@@3PAHA					; twelve
_BSS	SEGMENT
?day@@3HA DD	01H DUP (?)				; day
?month@@3HA DD	01H DUP (?)				; month
?year@@3HA DD	01H DUP (?)				; year
_BSS	ENDS
msvcjmc	SEGMENT
__CD417A16_concurrencysal@h DB 01H
__18C11F8D_sal@h DB 01H
__BD42D05E_vadefs@h DB 01H
__2DC9DF70_vcruntime@h DB 01H
__C9149A6D_xkeycheck@h DB 01H
__94F3B4AE_yvals_core@h DB 01H
__7B399007_limits@h DB 01H
__1AB9F2C2_climits DB 01H
__04C75F1C_corecrt@h DB 01H
__E81B5085_vcruntime_new@h DB 01H
__130137D5_vcruntime_new_debug@h DB 01H
__8CF369C8_crtdbg@h DB 01H
__95C621C9_crtdefs@h DB 01H
__FEED0ABF_use_ansi@h DB 01H
__2816668F_yvals@h DB 01H
__92857972_corecrt_math@h DB 01H
__A29DED85_math@h DB 01H
__494656A0_corecrt_malloc@h DB 01H
__0C5B3DCC_stddef@h DB 01H
__F1F53BCE_corecrt_search@h DB 01H
__DD5AA43A_corecrt_wstdlib@h DB 01H
__71F46169_stdlib@h DB 01H
__9E56D030_cstdlib DB 01H
__05E338F6_xtr1common DB 01H
__99FA516B_intrin0@inl@h DB 01H
__8CEB98C2_intrin0@h DB 01H
__7A7B113A_cmath DB 01H
__C44F8F6B_corecrt_stdio_config@h DB 01H
__A7F89B2B_corecrt_wstdio@h DB 01H
__B5C48800_stdio@h DB 01H
__A651C215_cstdio DB 01H
__15E49872_errno@h DB 01H
__6BB4896E_vcruntime_string@h DB 01H
__184F7456_corecrt_memcpy_s@h DB 01H
__82377222_corecrt_memory@h DB 01H
__5B29309E_corecrt_wstring@h DB 01H
__F787F5CD_string@h DB 01H
__D2C478D0_cstring DB 01H
__E387ED1C_corecrt_wconio@h DB 01H
__78D0C915_corecrt_wctype@h DB 01H
__02A4DD57_corecrt_wdirect@h DB 01H
__A056EFF3_corecrt_share@h DB 01H
__91FC0EDF_corecrt_wio@h DB 01H
__6619318A_corecrt_wprocess@h DB 01H
__18070508_corecrt_wtime@h DB 01H
__3D2AFB26_types@h DB 01H
__72103B05_stat@h DB 01H
__4BE26BFD_wchar@h DB 01H
__3CDA1446_cwchar DB 01H
__3B9D0A9D_cstddef DB 01H
__D7870C25_initializer_list DB 01H
__5E44C2A9_xstddef DB 01H
__7F1A9170_iosfwd DB 01H
__C54FBE38_stdint@h DB 01H
__2308314D_cstdint DB 01H
__87BD5CA6_type_traits DB 01H
__A95B55BB_utility DB 01H
__EE76B579___msvc_iter_core@hpp DB 01H
__A997C6C5_xutility DB 01H
__B83B7185_iterator DB 01H
__83BF90D8_share@h DB 01H
__9D384591___msvc_system_error_abi@hpp DB 01H
__3B70B6EE_cerrno DB 01H
__E5D9469F_malloc@h DB 01H
__C78E68C1_corecrt_terminate@h DB 01H
__510B0051_eh@h DB 01H
__1BEF3287_vcruntime_exception@h DB 01H
__5D994F5F_exception DB 01H
__CDB0EEF0_float@h DB 01H
__D5150992_cfloat DB 01H
__B83F831D_isa_availability@h DB 01H
__B3F344F6_limits DB 01H
__7E4C13A5_new DB 01H
__5795C389_xatomic@h DB 01H
__C3CE3678_xmemory DB 01H
__B71DB0E4_xstring DB 01H
__D4D77502_stdexcept DB 01H
__D76B6AFE_xcall_once@h DB 01H
__80837380_xerrc@h DB 01H
__93FD7E51_time@h DB 01H
__BCC88D32_ctime DB 01H
__1F532584_xtimec@h DB 01H
__9FA33D0C_xthreads@h DB 01H
__D8C61834_atomic DB 01H
__683678DE_system_error DB 01H
__FA9853E6_vcruntime_typeinfo@h DB 01H
__D94835DC_typeinfo DB 01H
__0F5D4878_memory DB 01H
__23181F77_xfacet DB 01H
__274043E2___msvc_xlocinfo_types@hpp DB 01H
__6AECDA3E_ctype@h DB 01H
__A99A25B2_cctype DB 01H
__66B29864_locale@h DB 01H
__0DFA0CE1_clocale DB 01H
__C6C1D614_xlocinfo DB 01H
__6823C4D5_xlocale DB 01H
__FF24A107_xiosbase DB 01H
__D677CDBE_streambuf DB 01H
__F6A4A2C2_xlocnum DB 01H
__868129B3_ios DB 01H
__7B331E11_ostream DB 01H
__18E32B2B_istream DB 01H
__CBEEBCDA_iostream DB 01H
__182DED94_data@cpp DB 01H
msvcjmc	ENDS
_DATA	SEGMENT
?twelve@@3PAHA DD 01fH					; twelve
	DD	01cH
	DD	01fH
	DD	01eH
	DD	01fH
	DD	01eH
	DD	01fH
	DD	01fH
	DD	01eH
	DD	01fH
	DD	01eH
	DD	01fH
_DATA	ENDS
PUBLIC	?__empty_global_delete@@YAXPEAX@Z		; __empty_global_delete
PUBLIC	?__empty_global_delete@@YAXPEAX_K@Z		; __empty_global_delete
PUBLIC	?length@?$_Narrow_char_traits@DH@std@@SA_KQEBD@Z ; std::_Narrow_char_traits<char,int>::length
PUBLIC	?eq_int_type@?$_Narrow_char_traits@DH@std@@SA_NAEBH0@Z ; std::_Narrow_char_traits<char,int>::eq_int_type
PUBLIC	?eof@?$_Narrow_char_traits@DH@std@@SAHXZ	; std::_Narrow_char_traits<char,int>::eof
PUBLIC	?split@@YAXH@Z					; split
PUBLIC	?leap@@YA_NH@Z					; leap
PUBLIC	?number@@YAHHHH@Z				; number
PUBLIC	?days@@YAHHHH@Z					; days
PUBLIC	?check@@YA_NH@Z					; check
PUBLIC	main
PUBLIC	??$?6U?$char_traits@D@std@@@std@@YAAEAV?$basic_ostream@DU?$char_traits@D@std@@@0@AEAV10@PEBD@Z ; std::operator<<<std::char_traits<char> >
PUBLIC	??$endl@DU?$char_traits@D@std@@@std@@YAAEAV?$basic_ostream@DU?$char_traits@D@std@@@0@AEAV10@@Z ; std::endl<char,std::char_traits<char> >
PUBLIC	??0_Sentry_base@?$basic_ostream@DU?$char_traits@D@std@@@std@@QEAA@AEAV12@@Z ; std::basic_ostream<char,std::char_traits<char> >::_Sentry_base::_Sentry_base
PUBLIC	??1_Sentry_base@?$basic_ostream@DU?$char_traits@D@std@@@std@@QEAA@XZ ; std::basic_ostream<char,std::char_traits<char> >::_Sentry_base::~_Sentry_base
PUBLIC	??0sentry@?$basic_ostream@DU?$char_traits@D@std@@@std@@QEAA@AEAV12@@Z ; std::basic_ostream<char,std::char_traits<char> >::sentry::sentry
PUBLIC	??1sentry@?$basic_ostream@DU?$char_traits@D@std@@@std@@QEAA@XZ ; std::basic_ostream<char,std::char_traits<char> >::sentry::~sentry
PUBLIC	??Bsentry@?$basic_ostream@DU?$char_traits@D@std@@@std@@QEBA_NXZ ; std::basic_ostream<char,std::char_traits<char> >::sentry::operator bool
PUBLIC	__JustMyCode_Default
PUBLIC	??_C@_07PEAPJBGG@Russian@			; `string'
PUBLIC	??_C@_0BK@EKFAEONN@?B?b?e?d?h?r?e?5?d?$OA?r?s?5?$CI?D?D?L?L?C?C?C?C?$CJ?3?5@ ; `string'
PUBLIC	??_C@_0BC@PNMOGPH@?M?e?j?n?p?p?e?j?r?m?$PL?i?5?b?b?n?d@ ; `string'
PUBLIC	??_C@_0BC@KOFKEHLC@?5?9?5?b?h?q?n?j?n?q?m?$PL?i?5?c?n?d@ ; `string'
PUBLIC	??_C@_0BE@CCNHMNFG@?5?9?5?m?e?b?h?q?n?j?n?q?m?$PL?i?5?c?n?d@ ; `string'
PUBLIC	??_C@_0BI@OJHANM@?5?9?5?o?n?p?$PP?d?j?n?b?$PL?i?5?m?n?l?e?p?5?d?m?$PP@ ; `string'
PUBLIC	??_C@_0CP@DGHNGODM@?5?d?m?e?i?5?d?n?5?a?k?h?f?$OA?i?x?e?c?n?5?l?n?e?c?n?5?d?m?$PP?5?p@ ; `string'
EXTRN	abs:PROC
EXTRN	__imp_exit:PROC
EXTRN	strlen:PROC
EXTRN	?uncaught_exception@std@@YA_NXZ:PROC		; std::uncaught_exception
EXTRN	__imp_setlocale:PROC
EXTRN	__imp_?good@ios_base@std@@QEBA_NXZ:PROC
EXTRN	__imp_?flags@ios_base@std@@QEBAHXZ:PROC
EXTRN	__imp_?width@ios_base@std@@QEBA_JXZ:PROC
EXTRN	__imp_?width@ios_base@std@@QEAA_J_J@Z:PROC
EXTRN	__imp_?sputc@?$basic_streambuf@DU?$char_traits@D@std@@@std@@QEAAHD@Z:PROC
EXTRN	__imp_?sputn@?$basic_streambuf@DU?$char_traits@D@std@@@std@@QEAA_JPEBD_J@Z:PROC
EXTRN	__imp_?setstate@?$basic_ios@DU?$char_traits@D@std@@@std@@QEAAXH_N@Z:PROC
EXTRN	__imp_?tie@?$basic_ios@DU?$char_traits@D@std@@@std@@QEBAPEAV?$basic_ostream@DU?$char_traits@D@std@@@2@XZ:PROC
EXTRN	__imp_?rdbuf@?$basic_ios@DU?$char_traits@D@std@@@std@@QEBAPEAV?$basic_streambuf@DU?$char_traits@D@std@@@2@XZ:PROC
EXTRN	__imp_?fill@?$basic_ios@DU?$char_traits@D@std@@@std@@QEBADXZ:PROC
EXTRN	__imp_?widen@?$basic_ios@DU?$char_traits@D@std@@@std@@QEBADD@Z:PROC
EXTRN	__imp_?_Osfx@?$basic_ostream@DU?$char_traits@D@std@@@std@@QEAAXXZ:PROC
EXTRN	__imp_??6?$basic_ostream@DU?$char_traits@D@std@@@std@@QEAAAEAV01@P6AAEAV01@AEAV01@@Z@Z:PROC
EXTRN	__imp_??6?$basic_ostream@DU?$char_traits@D@std@@@std@@QEAAAEAV01@H@Z:PROC
EXTRN	__imp_?put@?$basic_ostream@DU?$char_traits@D@std@@@std@@QEAAAEAV12@D@Z:PROC
EXTRN	__imp_?flush@?$basic_ostream@DU?$char_traits@D@std@@@std@@QEAAAEAV12@XZ:PROC
EXTRN	__imp_??5?$basic_istream@DU?$char_traits@D@std@@@std@@QEAAAEAV01@AEAH@Z:PROC
EXTRN	_RTC_CheckStackVars:PROC
EXTRN	_RTC_InitBase:PROC
EXTRN	_RTC_Shutdown:PROC
EXTRN	__CheckForDebuggerJustMyCode:PROC
EXTRN	__CxxFrameHandler4:PROC
EXTRN	__GSHandlerCheck:PROC
EXTRN	__GSHandlerCheck_EH4:PROC
EXTRN	__security_check_cookie:PROC
EXTRN	__imp_?cin@std@@3V?$basic_istream@DU?$char_traits@D@std@@@1@A:BYTE
EXTRN	__imp_?cout@std@@3V?$basic_ostream@DU?$char_traits@D@std@@@1@A:BYTE
EXTRN	__security_cookie:QWORD
;	COMDAT pdata
pdata	SEGMENT
$pdata$?__empty_global_delete@@YAXPEAX@Z DD imagerel $LN3
	DD	imagerel $LN3+41
	DD	imagerel $unwind$?__empty_global_delete@@YAXPEAX@Z
pdata	ENDS
;	COMDAT pdata
pdata	SEGMENT
$pdata$?__empty_global_delete@@YAXPEAX_K@Z DD imagerel $LN3
	DD	imagerel $LN3+46
	DD	imagerel $unwind$?__empty_global_delete@@YAXPEAX_K@Z
pdata	ENDS
;	COMDAT pdata
pdata	SEGMENT
$pdata$?length@?$_Narrow_char_traits@DH@std@@SA_KQEBD@Z DD imagerel $LN3
	DD	imagerel $LN3+53
	DD	imagerel $unwind$?length@?$_Narrow_char_traits@DH@std@@SA_KQEBD@Z
pdata	ENDS
;	COMDAT pdata
pdata	SEGMENT
$pdata$?eq_int_type@?$_Narrow_char_traits@DH@std@@SA_NAEBH0@Z DD imagerel $LN5
	DD	imagerel $LN5+95
	DD	imagerel $unwind$?eq_int_type@?$_Narrow_char_traits@DH@std@@SA_NAEBH0@Z
pdata	ENDS
;	COMDAT pdata
pdata	SEGMENT
$pdata$?eof@?$_Narrow_char_traits@DH@std@@SAHXZ DD imagerel $LN3
	DD	imagerel $LN3+42
	DD	imagerel $unwind$?eof@?$_Narrow_char_traits@DH@std@@SAHXZ
pdata	ENDS
;	COMDAT pdata
pdata	SEGMENT
$pdata$?split@@YAXH@Z DD imagerel $LN3
	DD	imagerel $LN3+125
	DD	imagerel $unwind$?split@@YAXH@Z
pdata	ENDS
;	COMDAT pdata
pdata	SEGMENT
$pdata$?leap@@YA_NH@Z DD imagerel $LN5
	DD	imagerel $LN5+69
	DD	imagerel $unwind$?leap@@YA_NH@Z
pdata	ENDS
;	COMDAT pdata
pdata	SEGMENT
$pdata$?number@@YAHHHH@Z DD imagerel $LN8
	DD	imagerel $LN8+169
	DD	imagerel $unwind$?number@@YAHHHH@Z
pdata	ENDS
;	COMDAT pdata
pdata	SEGMENT
$pdata$?days@@YAHHHH@Z DD imagerel $LN11
	DD	imagerel $LN11+372
	DD	imagerel $unwind$?days@@YAHHHH@Z
pdata	ENDS
;	COMDAT pdata
pdata	SEGMENT
$pdata$?check@@YA_NH@Z DD imagerel $LN6
	DD	imagerel $LN6+114
	DD	imagerel $unwind$?check@@YA_NH@Z
pdata	ENDS
;	COMDAT pdata
pdata	SEGMENT
$pdata$main DD	imagerel $LN9
	DD	imagerel $LN9+496
	DD	imagerel $unwind$main
pdata	ENDS
;	COMDAT pdata
pdata	SEGMENT
$pdata$??$?6U?$char_traits@D@std@@@std@@YAAEAV?$basic_ostream@DU?$char_traits@D@std@@@0@AEAV10@PEBD@Z DD imagerel $LN25
	DD	imagerel $LN25+1036
	DD	imagerel $unwind$??$?6U?$char_traits@D@std@@@std@@YAAEAV?$basic_ostream@DU?$char_traits@D@std@@@0@AEAV10@PEBD@Z
pdata	ENDS
;	COMDAT pdata
pdata	SEGMENT
$pdata$?dtor$0@?0???$?6U?$char_traits@D@std@@@std@@YAAEAV?$basic_ostream@DU?$char_traits@D@std@@@0@AEAV10@PEBD@Z@4HA DD imagerel ?dtor$0@?0???$?6U?$char_traits@D@std@@@std@@YAAEAV?$basic_ostream@DU?$char_traits@D@std@@@0@AEAV10@PEBD@Z@4HA
	DD	imagerel ?dtor$0@?0???$?6U?$char_traits@D@std@@@std@@YAAEAV?$basic_ostream@DU?$char_traits@D@std@@@0@AEAV10@PEBD@Z@4HA+36
	DD	imagerel $unwind$?dtor$0@?0???$?6U?$char_traits@D@std@@@std@@YAAEAV?$basic_ostream@DU?$char_traits@D@std@@@0@AEAV10@PEBD@Z@4HA
pdata	ENDS
;	COMDAT pdata
pdata	SEGMENT
$pdata$?catch$1@?0???$?6U?$char_traits@D@std@@@std@@YAAEAV?$basic_ostream@DU?$char_traits@D@std@@@0@AEAV10@PEBD@Z@4HA DD imagerel ?catch$1@?0???$?6U?$char_traits@D@std@@@std@@YAAEAV?$basic_ostream@DU?$char_traits@D@std@@@0@AEAV10@PEBD@Z@4HA
	DD	imagerel ?catch$1@?0???$?6U?$char_traits@D@std@@@std@@YAAEAV?$basic_ostream@DU?$char_traits@D@std@@@0@AEAV10@PEBD@Z@4HA+80
	DD	imagerel $unwind$?catch$1@?0???$?6U?$char_traits@D@std@@@std@@YAAEAV?$basic_ostream@DU?$char_traits@D@std@@@0@AEAV10@PEBD@Z@4HA
pdata	ENDS
;	COMDAT pdata
pdata	SEGMENT
$pdata$??$endl@DU?$char_traits@D@std@@@std@@YAAEAV?$basic_ostream@DU?$char_traits@D@std@@@0@AEAV10@@Z DD imagerel $LN3
	DD	imagerel $LN3+115
	DD	imagerel $unwind$??$endl@DU?$char_traits@D@std@@@std@@YAAEAV?$basic_ostream@DU?$char_traits@D@std@@@0@AEAV10@@Z
pdata	ENDS
;	COMDAT pdata
pdata	SEGMENT
$pdata$??0_Sentry_base@?$basic_ostream@DU?$char_traits@D@std@@@std@@QEAA@AEAV12@@Z DD imagerel $LN4
	DD	imagerel $LN4+148
	DD	imagerel $unwind$??0_Sentry_base@?$basic_ostream@DU?$char_traits@D@std@@@std@@QEAA@AEAV12@@Z
pdata	ENDS
;	COMDAT pdata
pdata	SEGMENT
$pdata$??1_Sentry_base@?$basic_ostream@DU?$char_traits@D@std@@@std@@QEAA@XZ DD imagerel $LN4
	DD	imagerel $LN4+120
	DD	imagerel $unwind$??1_Sentry_base@?$basic_ostream@DU?$char_traits@D@std@@@std@@QEAA@XZ
pdata	ENDS
;	COMDAT pdata
pdata	SEGMENT
$pdata$??0sentry@?$basic_ostream@DU?$char_traits@D@std@@@std@@QEAA@AEAV12@@Z DD imagerel $LN7
	DD	imagerel $LN7+261
	DD	imagerel $unwind$??0sentry@?$basic_ostream@DU?$char_traits@D@std@@@std@@QEAA@AEAV12@@Z
pdata	ENDS
;	COMDAT pdata
pdata	SEGMENT
$pdata$?dtor$0@?0???0sentry@?$basic_ostream@DU?$char_traits@D@std@@@std@@QEAA@AEAV12@@Z@4HA DD imagerel ?dtor$0@?0???0sentry@?$basic_ostream@DU?$char_traits@D@std@@@std@@QEAA@AEAV12@@Z@4HA
	DD	imagerel ?dtor$0@?0???0sentry@?$basic_ostream@DU?$char_traits@D@std@@@std@@QEAA@AEAV12@@Z@4HA+39
	DD	imagerel $unwind$?dtor$0@?0???0sentry@?$basic_ostream@DU?$char_traits@D@std@@@std@@QEAA@AEAV12@@Z@4HA
pdata	ENDS
;	COMDAT pdata
pdata	SEGMENT
$pdata$??1sentry@?$basic_ostream@DU?$char_traits@D@std@@@std@@QEAA@XZ DD imagerel $LN6
	DD	imagerel $LN6+116
	DD	imagerel $unwind$??1sentry@?$basic_ostream@DU?$char_traits@D@std@@@std@@QEAA@XZ
pdata	ENDS
;	COMDAT pdata
pdata	SEGMENT
$pdata$??Bsentry@?$basic_ostream@DU?$char_traits@D@std@@@std@@QEBA_NXZ DD imagerel $LN3
	DD	imagerel $LN3+52
	DD	imagerel $unwind$??Bsentry@?$basic_ostream@DU?$char_traits@D@std@@@std@@QEBA_NXZ
pdata	ENDS
;	COMDAT rtc$TMZ
rtc$TMZ	SEGMENT
_RTC_Shutdown.rtc$TMZ DQ FLAT:_RTC_Shutdown
rtc$TMZ	ENDS
;	COMDAT rtc$IMZ
rtc$IMZ	SEGMENT
_RTC_InitBase.rtc$IMZ DQ FLAT:_RTC_InitBase
rtc$IMZ	ENDS
;	COMDAT ??_C@_0CP@DGHNGODM@?5?d?m?e?i?5?d?n?5?a?k?h?f?$OA?i?x?e?c?n?5?l?n?e?c?n?5?d?m?$PP?5?p@
CONST	SEGMENT
??_C@_0CP@DGHNGODM@?5?d?m?e?i?5?d?n?5?a?k?h?f?$OA?i?x?e?c?n?5?l?n?e?c?n?5?d?m?$PP?5?p@ DB ' '
	DB	0e4H, 0edH, 0e5H, 0e9H, ' ', 0e4H, 0eeH, ' ', 0e1H, 0ebH, 0e8H
	DB	0e6H, 0e0H, 0e9H, 0f8H, 0e5H, 0e3H, 0eeH, ' ', 0ecH, 0eeH, 0e5H
	DB	0e3H, 0eeH, ' ', 0e4H, 0edH, 0ffH, ' ', 0f0H, 0eeH, 0e6H, 0e4H
	DB	0e5H, 0edH, 0e8H, 0ffH, ' (06.06)', 00H	; `string'
CONST	ENDS
;	COMDAT ??_C@_0BI@OJHANM@?5?9?5?o?n?p?$PP?d?j?n?b?$PL?i?5?m?n?l?e?p?5?d?m?$PP@
CONST	SEGMENT
??_C@_0BI@OJHANM@?5?9?5?o?n?p?$PP?d?j?n?b?$PL?i?5?m?n?l?e?p?5?d?m?$PP@ DB ' '
	DB	'- ', 0efH, 0eeH, 0f0H, 0ffH, 0e4H, 0eaH, 0eeH, 0e2H, 0fbH, 0e9H
	DB	' ', 0edH, 0eeH, 0ecH, 0e5H, 0f0H, ' ', 0e4H, 0edH, 0ffH, 00H ; `string'
CONST	ENDS
;	COMDAT ??_C@_0BE@CCNHMNFG@?5?9?5?m?e?b?h?q?n?j?n?q?m?$PL?i?5?c?n?d@
CONST	SEGMENT
??_C@_0BE@CCNHMNFG@?5?9?5?m?e?b?h?q?n?j?n?q?m?$PL?i?5?c?n?d@ DB ' - ', 0edH
	DB	0e5H, 0e2H, 0e8H, 0f1H, 0eeH, 0eaH, 0eeH, 0f1H, 0edH, 0fbH, 0e9H
	DB	' ', 0e3H, 0eeH, 0e4H, 00H			; `string'
CONST	ENDS
;	COMDAT ??_C@_0BC@KOFKEHLC@?5?9?5?b?h?q?n?j?n?q?m?$PL?i?5?c?n?d@
CONST	SEGMENT
??_C@_0BC@KOFKEHLC@?5?9?5?b?h?q?n?j?n?q?m?$PL?i?5?c?n?d@ DB ' - ', 0e2H, 0e8H
	DB	0f1H, 0eeH, 0eaH, 0eeH, 0f1H, 0edH, 0fbH, 0e9H, ' ', 0e3H, 0eeH
	DB	0e4H, 00H					; `string'
CONST	ENDS
;	COMDAT ??_C@_0BC@PNMOGPH@?M?e?j?n?p?p?e?j?r?m?$PL?i?5?b?b?n?d@
CONST	SEGMENT
??_C@_0BC@PNMOGPH@?M?e?j?n?p?p?e?j?r?m?$PL?i?5?b?b?n?d@ DB 0cdH, 0e5H, 0eaH
	DB	0eeH, 0f0H, 0f0H, 0e5H, 0eaH, 0f2H, 0edH, 0fbH, 0e9H, ' ', 0e2H
	DB	0e2H, 0eeH, 0e4H, 00H			; `string'
CONST	ENDS
;	COMDAT ??_C@_0BK@EKFAEONN@?B?b?e?d?h?r?e?5?d?$OA?r?s?5?$CI?D?D?L?L?C?C?C?C?$CJ?3?5@
CONST	SEGMENT
??_C@_0BK@EKFAEONN@?B?b?e?d?h?r?e?5?d?$OA?r?s?5?$CI?D?D?L?L?C?C?C?C?$CJ?3?5@ DB 0c2H
	DB	0e2H, 0e5H, 0e4H, 0e8H, 0f2H, 0e5H, ' ', 0e4H, 0e0H, 0f2H, 0f3H
	DB	' (', 0c4H, 0c4H, 0ccH, 0ccH, 0c3H, 0c3H, 0c3H, 0c3H, '): ', 00H ; `string'
CONST	ENDS
;	COMDAT ??_C@_07PEAPJBGG@Russian@
CONST	SEGMENT
??_C@_07PEAPJBGG@Russian@ DB 'Russian', 00H		; `string'
CONST	ENDS
;	COMDAT xdata
xdata	SEGMENT
$unwind$??Bsentry@?$basic_ostream@DU?$char_traits@D@std@@@std@@QEBA_NXZ DD 025051301H
	DD	010e2313H
	DD	07007001dH
	DD	05006H
xdata	ENDS
;	COMDAT xdata
xdata	SEGMENT
$ip2state$??1sentry@?$basic_ostream@DU?$char_traits@D@std@@@std@@QEAA@XZ DB 02H
	DB	00H
	DB	00H
xdata	ENDS
;	COMDAT xdata
xdata	SEGMENT
$cppxdata$??1sentry@?$basic_ostream@DU?$char_traits@D@std@@@std@@QEAA@XZ DB 060H
	DD	imagerel $ip2state$??1sentry@?$basic_ostream@DU?$char_traits@D@std@@@std@@QEAA@XZ
xdata	ENDS
;	COMDAT xdata
xdata	SEGMENT
$unwind$??1sentry@?$basic_ostream@DU?$char_traits@D@std@@@std@@QEAA@XZ DD 025051319H
	DD	010e2313H
	DD	070070021H
	DD	05006H
	DD	imagerel __CxxFrameHandler4
	DD	imagerel $cppxdata$??1sentry@?$basic_ostream@DU?$char_traits@D@std@@@std@@QEAA@XZ
xdata	ENDS
;	COMDAT voltbl
voltbl	SEGMENT
_volmd	DB	00H
	DB	05H
voltbl	ENDS
;	COMDAT xdata
xdata	SEGMENT
$unwind$?dtor$0@?0???0sentry@?$basic_ostream@DU?$char_traits@D@std@@@std@@QEAA@AEAV12@@Z@4HA DD 031001H
	DD	0700c4210H
	DD	0500bH
xdata	ENDS
;	COMDAT xdata
xdata	SEGMENT
$ip2state$??0sentry@?$basic_ostream@DU?$char_traits@D@std@@@std@@QEAA@AEAV12@@Z DB 06H
	DB	00H
	DB	00H
	DB	'p'
	DB	02H
	DB	0f1H, 02H
	DB	00H
xdata	ENDS
;	COMDAT xdata
xdata	SEGMENT
$stateUnwindMap$??0sentry@?$basic_ostream@DU?$char_traits@D@std@@@std@@QEAA@AEAV12@@Z DB 02H
	DB	0eH
	DD	imagerel ?dtor$0@?0???0sentry@?$basic_ostream@DU?$char_traits@D@std@@@std@@QEAA@AEAV12@@Z@4HA
xdata	ENDS
;	COMDAT xdata
xdata	SEGMENT
$cppxdata$??0sentry@?$basic_ostream@DU?$char_traits@D@std@@@std@@QEAA@AEAV12@@Z DB 028H
	DD	imagerel $stateUnwindMap$??0sentry@?$basic_ostream@DU?$char_traits@D@std@@@std@@QEAA@AEAV12@@Z
	DD	imagerel $ip2state$??0sentry@?$basic_ostream@DU?$char_traits@D@std@@@std@@QEAA@AEAV12@@Z
xdata	ENDS
;	COMDAT xdata
xdata	SEGMENT
$unwind$??0sentry@?$basic_ostream@DU?$char_traits@D@std@@@std@@QEAA@AEAV12@@Z DD 025051811H
	DD	01132318H
	DD	0700c0021H
	DD	0500bH
	DD	imagerel __CxxFrameHandler4
	DD	imagerel $cppxdata$??0sentry@?$basic_ostream@DU?$char_traits@D@std@@@std@@QEAA@AEAV12@@Z
xdata	ENDS
;	COMDAT xdata
xdata	SEGMENT
$ip2state$??1_Sentry_base@?$basic_ostream@DU?$char_traits@D@std@@@std@@QEAA@XZ DB 02H
	DB	00H
	DB	00H
xdata	ENDS
;	COMDAT xdata
xdata	SEGMENT
$cppxdata$??1_Sentry_base@?$basic_ostream@DU?$char_traits@D@std@@@std@@QEAA@XZ DB 060H
	DD	imagerel $ip2state$??1_Sentry_base@?$basic_ostream@DU?$char_traits@D@std@@@std@@QEAA@XZ
xdata	ENDS
;	COMDAT xdata
xdata	SEGMENT
$unwind$??1_Sentry_base@?$basic_ostream@DU?$char_traits@D@std@@@std@@QEAA@XZ DD 025051319H
	DD	010e2313H
	DD	070070021H
	DD	05006H
	DD	imagerel __CxxFrameHandler4
	DD	imagerel $cppxdata$??1_Sentry_base@?$basic_ostream@DU?$char_traits@D@std@@@std@@QEAA@XZ
xdata	ENDS
;	COMDAT xdata
xdata	SEGMENT
$unwind$??0_Sentry_base@?$basic_ostream@DU?$char_traits@D@std@@@std@@QEAA@AEAV12@@Z DD 025051801H
	DD	01132318H
	DD	0700c0021H
	DD	0500bH
xdata	ENDS
;	COMDAT xdata
xdata	SEGMENT
$unwind$??$endl@DU?$char_traits@D@std@@@std@@YAAEAV?$basic_ostream@DU?$char_traits@D@std@@@0@AEAV10@@Z DD 025051301H
	DD	010e2313H
	DD	07007001dH
	DD	05006H
xdata	ENDS
;	COMDAT voltbl
voltbl	SEGMENT
_volmd	DB	00H
	DB	05H
voltbl	ENDS
;	COMDAT voltbl
voltbl	SEGMENT
_volmd	DB	00H
	DB	05H
voltbl	ENDS
;	COMDAT voltbl
voltbl	SEGMENT
_volmd	DW	03bH
	DW	03f3H
voltbl	ENDS
;	COMDAT xdata
xdata	SEGMENT
$unwind$?catch$1@?0???$?6U?$char_traits@D@std@@@std@@YAAEAV?$basic_ostream@DU?$char_traits@D@std@@@0@AEAV10@PEBD@Z@4HA DD 031001H
	DD	0700c4210H
	DD	0500bH
xdata	ENDS
;	COMDAT xdata
xdata	SEGMENT
$unwind$?dtor$0@?0???$?6U?$char_traits@D@std@@@std@@YAAEAV?$basic_ostream@DU?$char_traits@D@std@@@0@AEAV10@PEBD@Z@4HA DD 031001H
	DD	0700c4210H
	DD	0500bH
xdata	ENDS
;	COMDAT xdata
xdata	SEGMENT
$ip2state$??$?6U?$char_traits@D@std@@@std@@YAAEAV?$basic_ostream@DU?$char_traits@D@std@@@0@AEAV10@PEBD@Z DB 0aH
	DB	00H
	DB	00H
	DB	'A', 04H
	DB	02H
	DB	'<'
	DB	04H
	DB	095H, 09H
	DB	02H
	DB	't'
	DB	00H
xdata	ENDS
;	COMDAT xdata
xdata	SEGMENT
$handlerMap$??$?6U?$char_traits@D@std@@@std@@YAAEAV?$basic_ostream@DU?$char_traits@D@std@@@0@AEAV10@PEBD@Z DB 02H
	DB	01H
	DB	080H
	DD	imagerel ?catch$1@?0???$?6U?$char_traits@D@std@@@std@@YAAEAV?$basic_ostream@DU?$char_traits@D@std@@@0@AEAV10@PEBD@Z@4HA
xdata	ENDS
;	COMDAT xdata
xdata	SEGMENT
$tryMap$??$?6U?$char_traits@D@std@@@std@@YAAEAV?$basic_ostream@DU?$char_traits@D@std@@@0@AEAV10@PEBD@Z DB 02H
	DB	02H
	DB	02H
	DB	04H
	DD	imagerel $handlerMap$??$?6U?$char_traits@D@std@@@std@@YAAEAV?$basic_ostream@DU?$char_traits@D@std@@@0@AEAV10@PEBD@Z
xdata	ENDS
;	COMDAT xdata
xdata	SEGMENT
$stateUnwindMap$??$?6U?$char_traits@D@std@@@std@@YAAEAV?$basic_ostream@DU?$char_traits@D@std@@@0@AEAV10@PEBD@Z DB 06H
	DB	0eH
	DD	imagerel ?dtor$0@?0???$?6U?$char_traits@D@std@@@std@@YAAEAV?$basic_ostream@DU?$char_traits@D@std@@@0@AEAV10@PEBD@Z@4HA
	DB	028H
	DB	030H
xdata	ENDS
;	COMDAT xdata
xdata	SEGMENT
$cppxdata$??$?6U?$char_traits@D@std@@@std@@YAAEAV?$basic_ostream@DU?$char_traits@D@std@@@0@AEAV10@PEBD@Z DB 038H
	DD	imagerel $stateUnwindMap$??$?6U?$char_traits@D@std@@@std@@YAAEAV?$basic_ostream@DU?$char_traits@D@std@@@0@AEAV10@PEBD@Z
	DD	imagerel $tryMap$??$?6U?$char_traits@D@std@@@std@@YAAEAV?$basic_ostream@DU?$char_traits@D@std@@@0@AEAV10@PEBD@Z
	DD	imagerel $ip2state$??$?6U?$char_traits@D@std@@@std@@YAAEAV?$basic_ostream@DU?$char_traits@D@std@@@0@AEAV10@PEBD@Z
xdata	ENDS
;	COMDAT xdata
xdata	SEGMENT
$unwind$??$?6U?$char_traits@D@std@@@std@@YAAEAV?$basic_ostream@DU?$char_traits@D@std@@@0@AEAV10@PEBD@Z DD 025054219H
	DD	01132318H
	DD	0700c0045H
	DD	0500bH
	DD	imagerel __GSHandlerCheck_EH4
	DD	imagerel $cppxdata$??$?6U?$char_traits@D@std@@@std@@YAAEAV?$basic_ostream@DU?$char_traits@D@std@@@0@AEAV10@PEBD@Z
	DD	021bH
xdata	ENDS
;	COMDAT CONST
CONST	SEGMENT
??$?6U?$char_traits@D@std@@@std@@YAAEAV?$basic_ostream@DU?$char_traits@D@std@@@0@AEAV10@PEBD@Z$rtcName$0 DB 05fH ; std::operator<<<std::char_traits<char> >
	DB	04fH
	DB	06bH
	DB	00H
	ORG $+12
??$?6U?$char_traits@D@std@@@std@@YAAEAV?$basic_ostream@DU?$char_traits@D@std@@@0@AEAV10@PEBD@Z$rtcVarDesc DD 088H ; std::operator<<<std::char_traits<char> >
	DD	010H
	DQ	FLAT:??$?6U?$char_traits@D@std@@@std@@YAAEAV?$basic_ostream@DU?$char_traits@D@std@@@0@AEAV10@PEBD@Z$rtcName$0
	ORG $+48
??$?6U?$char_traits@D@std@@@std@@YAAEAV?$basic_ostream@DU?$char_traits@D@std@@@0@AEAV10@PEBD@Z$rtcFrameData DD 01H ; std::operator<<<std::char_traits<char> >
	DD	00H
	DQ	FLAT:??$?6U?$char_traits@D@std@@@std@@YAAEAV?$basic_ostream@DU?$char_traits@D@std@@@0@AEAV10@PEBD@Z$rtcVarDesc
CONST	ENDS
;	COMDAT voltbl
voltbl	SEGMENT
_volmd	DW	02aH
	DW	01d7H
voltbl	ENDS
;	COMDAT xdata
xdata	SEGMENT
$unwind$main DD	025053119H
	DD	010a230fH
	DD	070030021H
	DD	05002H
	DD	imagerel __GSHandlerCheck
	DD	0f8H
xdata	ENDS
;	COMDAT CONST
CONST	SEGMENT
main$rtcName$0 DB 064H
	DB	061H
	DB	074H
	DB	065H
	DB	00H
	ORG $+11
main$rtcVarDesc DD 024H
	DD	04H
	DQ	FLAT:main$rtcName$0
	ORG $+48
main$rtcFrameData DD 01H
	DD	00H
	DQ	FLAT:main$rtcVarDesc
CONST	ENDS
;	COMDAT xdata
xdata	SEGMENT
$unwind$?check@@YA_NH@Z DD 025051201H
	DD	010d2312H
	DD	07006001dH
	DD	05005H
xdata	ENDS
;	COMDAT xdata
xdata	SEGMENT
$unwind$?days@@YAHHHH@Z DD 025051b01H
	DD	0116231bH
	DD	0700f0025H
	DD	0500eH
xdata	ENDS
;	COMDAT xdata
xdata	SEGMENT
$unwind$?number@@YAHHHH@Z DD 025051b01H
	DD	0116231bH
	DD	0700f0025H
	DD	0500eH
xdata	ENDS
;	COMDAT xdata
xdata	SEGMENT
$unwind$?leap@@YA_NH@Z DD 025051201H
	DD	010d2312H
	DD	07006001dH
	DD	05005H
xdata	ENDS
;	COMDAT xdata
xdata	SEGMENT
$unwind$?split@@YAXH@Z DD 025051201H
	DD	010d2312H
	DD	070060025H
	DD	05005H
xdata	ENDS
;	COMDAT xdata
xdata	SEGMENT
$unwind$?eof@?$_Narrow_char_traits@DH@std@@SAHXZ DD 025050f01H
	DD	010a230fH
	DD	07003001dH
	DD	05002H
xdata	ENDS
;	COMDAT xdata
xdata	SEGMENT
$unwind$?eq_int_type@?$_Narrow_char_traits@DH@std@@SA_NAEBH0@Z DD 025051801H
	DD	01132318H
	DD	0700c001fH
	DD	0500bH
xdata	ENDS
;	COMDAT xdata
xdata	SEGMENT
$unwind$?length@?$_Narrow_char_traits@DH@std@@SA_KQEBD@Z DD 025051301H
	DD	010e2313H
	DD	07007001dH
	DD	05006H
xdata	ENDS
;	COMDAT xdata
xdata	SEGMENT
$unwind$?__empty_global_delete@@YAXPEAX_K@Z DD 025051801H
	DD	01132318H
	DD	0700c001dH
	DD	0500bH
xdata	ENDS
;	COMDAT xdata
xdata	SEGMENT
$unwind$?__empty_global_delete@@YAXPEAX@Z DD 025051301H
	DD	010e2313H
	DD	07007001dH
	DD	05006H
xdata	ENDS
; Function compile flags: /Odt
;	COMDAT __JustMyCode_Default
_TEXT	SEGMENT
__JustMyCode_Default PROC				; COMDAT
  00000	c2 00 00	 ret	 0
__JustMyCode_Default ENDP
_TEXT	ENDS
; Function compile flags: /Odtp /RTCsu /ZI
; File C:\Program Files\Microsoft Visual Studio\2022\Community\VC\Tools\MSVC\14.34.31933\include\ostream
;	COMDAT ??Bsentry@?$basic_ostream@DU?$char_traits@D@std@@@std@@QEBA_NXZ
_TEXT	SEGMENT
this$ = 224
??Bsentry@?$basic_ostream@DU?$char_traits@D@std@@@std@@QEBA_NXZ PROC ; std::basic_ostream<char,std::char_traits<char> >::sentry::operator bool, COMDAT

; 123  :         explicit __CLR_OR_THIS_CALL operator bool() const {

$LN3:
  00000	48 89 4c 24 08	 mov	 QWORD PTR [rsp+8], rcx
  00005	55		 push	 rbp
  00006	57		 push	 rdi
  00007	48 81 ec e8 00
	00 00		 sub	 rsp, 232		; 000000e8H
  0000e	48 8d 6c 24 20	 lea	 rbp, QWORD PTR [rsp+32]
  00013	48 8d 0d 00 00
	00 00		 lea	 rcx, OFFSET FLAT:__7B331E11_ostream
  0001a	e8 00 00 00 00	 call	 __CheckForDebuggerJustMyCode

; 124  :             return _Ok;

  0001f	48 8b 85 e0 00
	00 00		 mov	 rax, QWORD PTR this$[rbp]
  00026	0f b6 40 08	 movzx	 eax, BYTE PTR [rax+8]

; 125  :         }

  0002a	48 8d a5 c8 00
	00 00		 lea	 rsp, QWORD PTR [rbp+200]
  00031	5f		 pop	 rdi
  00032	5d		 pop	 rbp
  00033	c3		 ret	 0
??Bsentry@?$basic_ostream@DU?$char_traits@D@std@@@std@@QEBA_NXZ ENDP ; std::basic_ostream<char,std::char_traits<char> >::sentry::operator bool
_TEXT	ENDS
; Function compile flags: /Odtp /RTCsu /ZI
; File C:\Program Files\Microsoft Visual Studio\2022\Community\VC\Tools\MSVC\14.34.31933\include\ostream
;	COMDAT ??1sentry@?$basic_ostream@DU?$char_traits@D@std@@@std@@QEAA@XZ
_TEXT	SEGMENT
_Zero_uncaught_exceptions$ = 4
tv72 = 212
this$ = 256
??1sentry@?$basic_ostream@DU?$char_traits@D@std@@@std@@QEAA@XZ PROC ; std::basic_ostream<char,std::char_traits<char> >::sentry::~sentry, COMDAT

; 108  :         __CLR_OR_THIS_CALL ~sentry() noexcept {

$LN6:
  00000	48 89 4c 24 08	 mov	 QWORD PTR [rsp+8], rcx
  00005	55		 push	 rbp
  00006	57		 push	 rdi
  00007	48 81 ec 08 01
	00 00		 sub	 rsp, 264		; 00000108H
  0000e	48 8d 6c 24 20	 lea	 rbp, QWORD PTR [rsp+32]
  00013	48 8d 0d 00 00
	00 00		 lea	 rcx, OFFSET FLAT:__7B331E11_ostream
  0001a	e8 00 00 00 00	 call	 __CheckForDebuggerJustMyCode

; 109  : #if !_HAS_EXCEPTIONS
; 110  :             const bool _Zero_uncaught_exceptions = true;
; 111  : #elif _HAS_DEPRECATED_UNCAUGHT_EXCEPTION
; 112  :             const bool _Zero_uncaught_exceptions = !_STD uncaught_exception(); // TRANSITION, ArchivedOS-12000909

  0001f	e8 00 00 00 00	 call	 ?uncaught_exception@std@@YA_NXZ ; std::uncaught_exception
  00024	0f b6 c0	 movzx	 eax, al
  00027	85 c0		 test	 eax, eax
  00029	75 09		 jne	 SHORT $LN4@sentry
  0002b	c6 85 d4 00 00
	00 01		 mov	 BYTE PTR tv72[rbp], 1
  00032	eb 07		 jmp	 SHORT $LN5@sentry
$LN4@sentry:
  00034	c6 85 d4 00 00
	00 00		 mov	 BYTE PTR tv72[rbp], 0
$LN5@sentry:
  0003b	0f b6 85 d4 00
	00 00		 movzx	 eax, BYTE PTR tv72[rbp]
  00042	88 45 04	 mov	 BYTE PTR _Zero_uncaught_exceptions$[rbp], al

; 113  : #else // ^^^ _HAS_DEPRECATED_UNCAUGHT_EXCEPTION / !_HAS_DEPRECATED_UNCAUGHT_EXCEPTION vvv
; 114  :             const bool _Zero_uncaught_exceptions = _STD uncaught_exceptions() == 0;
; 115  : #endif // !_HAS_DEPRECATED_UNCAUGHT_EXCEPTION
; 116  : 
; 117  :             if (_Zero_uncaught_exceptions) {

  00045	0f b6 45 04	 movzx	 eax, BYTE PTR _Zero_uncaught_exceptions$[rbp]
  00049	85 c0		 test	 eax, eax
  0004b	74 10		 je	 SHORT $LN2@sentry

; 118  :                 this->_Myostr._Osfx();

  0004d	48 8b 85 00 01
	00 00		 mov	 rax, QWORD PTR this$[rbp]
  00054	48 8b 08	 mov	 rcx, QWORD PTR [rax]
  00057	ff 15 00 00 00
	00		 call	 QWORD PTR __imp_?_Osfx@?$basic_ostream@DU?$char_traits@D@std@@@std@@QEAAXXZ
$LN2@sentry:

; 119  :             }
; 120  :         }

  0005d	48 8b 8d 00 01
	00 00		 mov	 rcx, QWORD PTR this$[rbp]
  00064	e8 00 00 00 00	 call	 ??1_Sentry_base@?$basic_ostream@DU?$char_traits@D@std@@@std@@QEAA@XZ ; std::basic_ostream<char,std::char_traits<char> >::_Sentry_base::~_Sentry_base
  00069	90		 npad	 1
  0006a	48 8d a5 e8 00
	00 00		 lea	 rsp, QWORD PTR [rbp+232]
  00071	5f		 pop	 rdi
  00072	5d		 pop	 rbp
  00073	c3		 ret	 0
??1sentry@?$basic_ostream@DU?$char_traits@D@std@@@std@@QEAA@XZ ENDP ; std::basic_ostream<char,std::char_traits<char> >::sentry::~sentry
_TEXT	ENDS
; Function compile flags: /Odtp /RTCsu /ZI
; File C:\Program Files\Microsoft Visual Studio\2022\Community\VC\Tools\MSVC\14.34.31933\include\ostream
;	COMDAT ??0sentry@?$basic_ostream@DU?$char_traits@D@std@@@std@@QEAA@AEAV12@@Z
_TEXT	SEGMENT
_Tied$ = 8
this$ = 256
_Ostr$ = 264
??0sentry@?$basic_ostream@DU?$char_traits@D@std@@@std@@QEAA@AEAV12@@Z PROC ; std::basic_ostream<char,std::char_traits<char> >::sentry::sentry, COMDAT

; 91   :         explicit __CLR_OR_THIS_CALL sentry(basic_ostream& _Ostr) : _Sentry_base(_Ostr) {

$LN7:
  00000	48 89 54 24 10	 mov	 QWORD PTR [rsp+16], rdx
  00005	48 89 4c 24 08	 mov	 QWORD PTR [rsp+8], rcx
  0000a	55		 push	 rbp
  0000b	57		 push	 rdi
  0000c	48 81 ec 08 01
	00 00		 sub	 rsp, 264		; 00000108H
  00013	48 8d 6c 24 20	 lea	 rbp, QWORD PTR [rsp+32]
  00018	48 8d 0d 00 00
	00 00		 lea	 rcx, OFFSET FLAT:__7B331E11_ostream
  0001f	e8 00 00 00 00	 call	 __CheckForDebuggerJustMyCode
  00024	48 8b 95 08 01
	00 00		 mov	 rdx, QWORD PTR _Ostr$[rbp]
  0002b	48 8b 8d 00 01
	00 00		 mov	 rcx, QWORD PTR this$[rbp]
  00032	e8 00 00 00 00	 call	 ??0_Sentry_base@?$basic_ostream@DU?$char_traits@D@std@@@std@@QEAA@AEAV12@@Z ; std::basic_ostream<char,std::char_traits<char> >::_Sentry_base::_Sentry_base
  00037	90		 npad	 1

; 92   :             if (!_Ostr.good()) {

  00038	48 8b 85 08 01
	00 00		 mov	 rax, QWORD PTR _Ostr$[rbp]
  0003f	48 8b 00	 mov	 rax, QWORD PTR [rax]
  00042	48 63 40 04	 movsxd	 rax, DWORD PTR [rax+4]
  00046	48 8b 8d 08 01
	00 00		 mov	 rcx, QWORD PTR _Ostr$[rbp]
  0004d	48 03 c8	 add	 rcx, rax
  00050	48 8b c1	 mov	 rax, rcx
  00053	48 8b c8	 mov	 rcx, rax
  00056	ff 15 00 00 00
	00		 call	 QWORD PTR __imp_?good@ios_base@std@@QEBA_NXZ
  0005c	0f b6 c0	 movzx	 eax, al
  0005f	85 c0		 test	 eax, eax
  00061	75 10		 jne	 SHORT $LN2@sentry

; 93   :                 _Ok = false;

  00063	48 8b 85 00 01
	00 00		 mov	 rax, QWORD PTR this$[rbp]
  0006a	c6 40 08 00	 mov	 BYTE PTR [rax+8], 0

; 94   :                 return;

  0006e	e9 81 00 00 00	 jmp	 $LN1@sentry
$LN2@sentry:

; 95   :             }
; 96   : 
; 97   :             const auto _Tied = _Ostr.tie();

  00073	48 8b 85 08 01
	00 00		 mov	 rax, QWORD PTR _Ostr$[rbp]
  0007a	48 8b 00	 mov	 rax, QWORD PTR [rax]
  0007d	48 63 40 04	 movsxd	 rax, DWORD PTR [rax+4]
  00081	48 8b 8d 08 01
	00 00		 mov	 rcx, QWORD PTR _Ostr$[rbp]
  00088	48 03 c8	 add	 rcx, rax
  0008b	48 8b c1	 mov	 rax, rcx
  0008e	48 8b c8	 mov	 rcx, rax
  00091	ff 15 00 00 00
	00		 call	 QWORD PTR __imp_?tie@?$basic_ios@DU?$char_traits@D@std@@@std@@QEBAPEAV?$basic_ostream@DU?$char_traits@D@std@@@2@XZ
  00097	48 89 45 08	 mov	 QWORD PTR _Tied$[rbp], rax

; 98   :             if (!_Tied || _Tied == &_Ostr) {

  0009b	48 83 7d 08 00	 cmp	 QWORD PTR _Tied$[rbp], 0
  000a0	74 0d		 je	 SHORT $LN4@sentry
  000a2	48 8b 85 08 01
	00 00		 mov	 rax, QWORD PTR _Ostr$[rbp]
  000a9	48 39 45 08	 cmp	 QWORD PTR _Tied$[rbp], rax
  000ad	75 0d		 jne	 SHORT $LN3@sentry
$LN4@sentry:

; 99   :                 _Ok = true;

  000af	48 8b 85 00 01
	00 00		 mov	 rax, QWORD PTR this$[rbp]
  000b6	c6 40 08 01	 mov	 BYTE PTR [rax+8], 1

; 100  :                 return;

  000ba	eb 38		 jmp	 SHORT $LN1@sentry
$LN3@sentry:

; 101  :             }
; 102  : 
; 103  :             _Tied->flush();

  000bc	48 8b 4d 08	 mov	 rcx, QWORD PTR _Tied$[rbp]
  000c0	ff 15 00 00 00
	00		 call	 QWORD PTR __imp_?flush@?$basic_ostream@DU?$char_traits@D@std@@@std@@QEAAAEAV12@XZ

; 104  :             _Ok = _Ostr.good(); // store test only after flushing tie

  000c6	48 8b 85 08 01
	00 00		 mov	 rax, QWORD PTR _Ostr$[rbp]
  000cd	48 8b 00	 mov	 rax, QWORD PTR [rax]
  000d0	48 63 40 04	 movsxd	 rax, DWORD PTR [rax+4]
  000d4	48 8b 8d 08 01
	00 00		 mov	 rcx, QWORD PTR _Ostr$[rbp]
  000db	48 03 c8	 add	 rcx, rax
  000de	48 8b c1	 mov	 rax, rcx
  000e1	48 8b c8	 mov	 rcx, rax
  000e4	ff 15 00 00 00
	00		 call	 QWORD PTR __imp_?good@ios_base@std@@QEBA_NXZ
  000ea	48 8b 8d 00 01
	00 00		 mov	 rcx, QWORD PTR this$[rbp]
  000f1	88 41 08	 mov	 BYTE PTR [rcx+8], al
$LN1@sentry:

; 105  :         }

  000f4	48 8b 85 00 01
	00 00		 mov	 rax, QWORD PTR this$[rbp]
  000fb	48 8d a5 e8 00
	00 00		 lea	 rsp, QWORD PTR [rbp+232]
  00102	5f		 pop	 rdi
  00103	5d		 pop	 rbp
  00104	c3		 ret	 0
??0sentry@?$basic_ostream@DU?$char_traits@D@std@@@std@@QEAA@AEAV12@@Z ENDP ; std::basic_ostream<char,std::char_traits<char> >::sentry::sentry
_TEXT	ENDS
; Function compile flags: /Odtp /RTCsu /ZI
;	COMDAT text$x
text$x	SEGMENT
_Tied$ = 8
this$ = 256
_Ostr$ = 264
?dtor$0@?0???0sentry@?$basic_ostream@DU?$char_traits@D@std@@@std@@QEAA@AEAV12@@Z@4HA PROC ; `std::basic_ostream<char,std::char_traits<char> >::sentry::sentry'::`1'::dtor$0
  00000	48 89 4c 24 08	 mov	 QWORD PTR [rsp+8], rcx
  00005	48 89 54 24 10	 mov	 QWORD PTR [rsp+16], rdx
  0000a	55		 push	 rbp
  0000b	57		 push	 rdi
  0000c	48 83 ec 28	 sub	 rsp, 40			; 00000028H
  00010	48 8d 6a 20	 lea	 rbp, QWORD PTR [rdx+32]
  00014	48 8b 8d 00 01
	00 00		 mov	 rcx, QWORD PTR this$[rbp]
  0001b	e8 00 00 00 00	 call	 ??1_Sentry_base@?$basic_ostream@DU?$char_traits@D@std@@@std@@QEAA@XZ ; std::basic_ostream<char,std::char_traits<char> >::_Sentry_base::~_Sentry_base
  00020	48 83 c4 28	 add	 rsp, 40			; 00000028H
  00024	5f		 pop	 rdi
  00025	5d		 pop	 rbp
  00026	c3		 ret	 0
?dtor$0@?0???0sentry@?$basic_ostream@DU?$char_traits@D@std@@@std@@QEAA@AEAV12@@Z@4HA ENDP ; `std::basic_ostream<char,std::char_traits<char> >::sentry::sentry'::`1'::dtor$0
text$x	ENDS
; Function compile flags: /Odtp /RTCsu /ZI
; File C:\Program Files\Microsoft Visual Studio\2022\Community\VC\Tools\MSVC\14.34.31933\include\ostream
;	COMDAT ??1_Sentry_base@?$basic_ostream@DU?$char_traits@D@std@@@std@@QEAA@XZ
_TEXT	SEGMENT
_Rdbuf$ = 8
tv72 = 216
this$ = 256
??1_Sentry_base@?$basic_ostream@DU?$char_traits@D@std@@@std@@QEAA@XZ PROC ; std::basic_ostream<char,std::char_traits<char> >::_Sentry_base::~_Sentry_base, COMDAT

; 77   :         __CLR_OR_THIS_CALL ~_Sentry_base() noexcept { // destroy after unlocking

$LN4:
  00000	48 89 4c 24 08	 mov	 QWORD PTR [rsp+8], rcx
  00005	55		 push	 rbp
  00006	57		 push	 rdi
  00007	48 81 ec 08 01
	00 00		 sub	 rsp, 264		; 00000108H
  0000e	48 8d 6c 24 20	 lea	 rbp, QWORD PTR [rsp+32]
  00013	48 8d 0d 00 00
	00 00		 lea	 rcx, OFFSET FLAT:__7B331E11_ostream
  0001a	e8 00 00 00 00	 call	 __CheckForDebuggerJustMyCode

; 78   :             const auto _Rdbuf = _Myostr.rdbuf();

  0001f	48 8b 85 00 01
	00 00		 mov	 rax, QWORD PTR this$[rbp]
  00026	48 8b 00	 mov	 rax, QWORD PTR [rax]
  00029	48 89 85 d8 00
	00 00		 mov	 QWORD PTR tv72[rbp], rax
  00030	48 8b 85 d8 00
	00 00		 mov	 rax, QWORD PTR tv72[rbp]
  00037	48 8b 00	 mov	 rax, QWORD PTR [rax]
  0003a	48 63 40 04	 movsxd	 rax, DWORD PTR [rax+4]
  0003e	48 8b 8d d8 00
	00 00		 mov	 rcx, QWORD PTR tv72[rbp]
  00045	48 03 c8	 add	 rcx, rax
  00048	48 8b c1	 mov	 rax, rcx
  0004b	48 8b c8	 mov	 rcx, rax
  0004e	ff 15 00 00 00
	00		 call	 QWORD PTR __imp_?rdbuf@?$basic_ios@DU?$char_traits@D@std@@@std@@QEBAPEAV?$basic_streambuf@DU?$char_traits@D@std@@@2@XZ
  00054	48 89 45 08	 mov	 QWORD PTR _Rdbuf$[rbp], rax

; 79   :             if (_Rdbuf) {

  00058	48 83 7d 08 00	 cmp	 QWORD PTR _Rdbuf$[rbp], 0
  0005d	74 0f		 je	 SHORT $LN2@Sentry_bas

; 80   :                 _Rdbuf->_Unlock();

  0005f	48 8b 45 08	 mov	 rax, QWORD PTR _Rdbuf$[rbp]
  00063	48 8b 00	 mov	 rax, QWORD PTR [rax]
  00066	48 8b 4d 08	 mov	 rcx, QWORD PTR _Rdbuf$[rbp]
  0006a	ff 50 10	 call	 QWORD PTR [rax+16]
  0006d	90		 npad	 1
$LN2@Sentry_bas:

; 81   :             }
; 82   :         }

  0006e	48 8d a5 e8 00
	00 00		 lea	 rsp, QWORD PTR [rbp+232]
  00075	5f		 pop	 rdi
  00076	5d		 pop	 rbp
  00077	c3		 ret	 0
??1_Sentry_base@?$basic_ostream@DU?$char_traits@D@std@@@std@@QEAA@XZ ENDP ; std::basic_ostream<char,std::char_traits<char> >::_Sentry_base::~_Sentry_base
_TEXT	ENDS
; Function compile flags: /Odtp /RTCsu /ZI
; File C:\Program Files\Microsoft Visual Studio\2022\Community\VC\Tools\MSVC\14.34.31933\include\ostream
;	COMDAT ??0_Sentry_base@?$basic_ostream@DU?$char_traits@D@std@@@std@@QEAA@AEAV12@@Z
_TEXT	SEGMENT
_Rdbuf$ = 8
tv73 = 216
this$ = 256
_Ostr$ = 264
??0_Sentry_base@?$basic_ostream@DU?$char_traits@D@std@@@std@@QEAA@AEAV12@@Z PROC ; std::basic_ostream<char,std::char_traits<char> >::_Sentry_base::_Sentry_base, COMDAT

; 70   :         __CLR_OR_THIS_CALL _Sentry_base(basic_ostream& _Ostr) : _Myostr(_Ostr) { // lock the stream buffer, if there

$LN4:
  00000	48 89 54 24 10	 mov	 QWORD PTR [rsp+16], rdx
  00005	48 89 4c 24 08	 mov	 QWORD PTR [rsp+8], rcx
  0000a	55		 push	 rbp
  0000b	57		 push	 rdi
  0000c	48 81 ec 08 01
	00 00		 sub	 rsp, 264		; 00000108H
  00013	48 8d 6c 24 20	 lea	 rbp, QWORD PTR [rsp+32]
  00018	48 8d 0d 00 00
	00 00		 lea	 rcx, OFFSET FLAT:__7B331E11_ostream
  0001f	e8 00 00 00 00	 call	 __CheckForDebuggerJustMyCode
  00024	48 8b 85 00 01
	00 00		 mov	 rax, QWORD PTR this$[rbp]
  0002b	48 8b 8d 08 01
	00 00		 mov	 rcx, QWORD PTR _Ostr$[rbp]
  00032	48 89 08	 mov	 QWORD PTR [rax], rcx

; 71   :             const auto _Rdbuf = _Myostr.rdbuf();

  00035	48 8b 85 00 01
	00 00		 mov	 rax, QWORD PTR this$[rbp]
  0003c	48 8b 00	 mov	 rax, QWORD PTR [rax]
  0003f	48 89 85 d8 00
	00 00		 mov	 QWORD PTR tv73[rbp], rax
  00046	48 8b 85 d8 00
	00 00		 mov	 rax, QWORD PTR tv73[rbp]
  0004d	48 8b 00	 mov	 rax, QWORD PTR [rax]
  00050	48 63 40 04	 movsxd	 rax, DWORD PTR [rax+4]
  00054	48 8b 8d d8 00
	00 00		 mov	 rcx, QWORD PTR tv73[rbp]
  0005b	48 03 c8	 add	 rcx, rax
  0005e	48 8b c1	 mov	 rax, rcx
  00061	48 8b c8	 mov	 rcx, rax
  00064	ff 15 00 00 00
	00		 call	 QWORD PTR __imp_?rdbuf@?$basic_ios@DU?$char_traits@D@std@@@std@@QEBAPEAV?$basic_streambuf@DU?$char_traits@D@std@@@2@XZ
  0006a	48 89 45 08	 mov	 QWORD PTR _Rdbuf$[rbp], rax

; 72   :             if (_Rdbuf) {

  0006e	48 83 7d 08 00	 cmp	 QWORD PTR _Rdbuf$[rbp], 0
  00073	74 0e		 je	 SHORT $LN2@Sentry_bas

; 73   :                 _Rdbuf->_Lock();

  00075	48 8b 45 08	 mov	 rax, QWORD PTR _Rdbuf$[rbp]
  00079	48 8b 00	 mov	 rax, QWORD PTR [rax]
  0007c	48 8b 4d 08	 mov	 rcx, QWORD PTR _Rdbuf$[rbp]
  00080	ff 50 08	 call	 QWORD PTR [rax+8]
$LN2@Sentry_bas:

; 74   :             }
; 75   :         }

  00083	48 8b 85 00 01
	00 00		 mov	 rax, QWORD PTR this$[rbp]
  0008a	48 8d a5 e8 00
	00 00		 lea	 rsp, QWORD PTR [rbp+232]
  00091	5f		 pop	 rdi
  00092	5d		 pop	 rbp
  00093	c3		 ret	 0
??0_Sentry_base@?$basic_ostream@DU?$char_traits@D@std@@@std@@QEAA@AEAV12@@Z ENDP ; std::basic_ostream<char,std::char_traits<char> >::_Sentry_base::_Sentry_base
_TEXT	ENDS
; Function compile flags: /Odtp /RTCsu /ZI
; File C:\Program Files\Microsoft Visual Studio\2022\Community\VC\Tools\MSVC\14.34.31933\include\ostream
;	COMDAT ??$endl@DU?$char_traits@D@std@@@std@@YAAEAV?$basic_ostream@DU?$char_traits@D@std@@@0@AEAV10@@Z
_TEXT	SEGMENT
_Ostr$ = 224
??$endl@DU?$char_traits@D@std@@@std@@YAAEAV?$basic_ostream@DU?$char_traits@D@std@@@0@AEAV10@@Z PROC ; std::endl<char,std::char_traits<char> >, COMDAT

; 1005 :     basic_ostream<_Elem, _Traits>& _Ostr) { // insert newline and flush stream

$LN3:
  00000	48 89 4c 24 08	 mov	 QWORD PTR [rsp+8], rcx
  00005	55		 push	 rbp
  00006	57		 push	 rdi
  00007	48 81 ec e8 00
	00 00		 sub	 rsp, 232		; 000000e8H
  0000e	48 8d 6c 24 20	 lea	 rbp, QWORD PTR [rsp+32]
  00013	48 8d 0d 00 00
	00 00		 lea	 rcx, OFFSET FLAT:__7B331E11_ostream
  0001a	e8 00 00 00 00	 call	 __CheckForDebuggerJustMyCode

; 1006 :     _Ostr.put(_Ostr.widen('\n'));

  0001f	48 8b 85 e0 00
	00 00		 mov	 rax, QWORD PTR _Ostr$[rbp]
  00026	48 8b 00	 mov	 rax, QWORD PTR [rax]
  00029	48 63 40 04	 movsxd	 rax, DWORD PTR [rax+4]
  0002d	48 8b 8d e0 00
	00 00		 mov	 rcx, QWORD PTR _Ostr$[rbp]
  00034	48 03 c8	 add	 rcx, rax
  00037	48 8b c1	 mov	 rax, rcx
  0003a	b2 0a		 mov	 dl, 10
  0003c	48 8b c8	 mov	 rcx, rax
  0003f	ff 15 00 00 00
	00		 call	 QWORD PTR __imp_?widen@?$basic_ios@DU?$char_traits@D@std@@@std@@QEBADD@Z
  00045	0f b6 d0	 movzx	 edx, al
  00048	48 8b 8d e0 00
	00 00		 mov	 rcx, QWORD PTR _Ostr$[rbp]
  0004f	ff 15 00 00 00
	00		 call	 QWORD PTR __imp_?put@?$basic_ostream@DU?$char_traits@D@std@@@std@@QEAAAEAV12@D@Z

; 1007 :     _Ostr.flush();

  00055	48 8b 8d e0 00
	00 00		 mov	 rcx, QWORD PTR _Ostr$[rbp]
  0005c	ff 15 00 00 00
	00		 call	 QWORD PTR __imp_?flush@?$basic_ostream@DU?$char_traits@D@std@@@std@@QEAAAEAV12@XZ

; 1008 :     return _Ostr;

  00062	48 8b 85 e0 00
	00 00		 mov	 rax, QWORD PTR _Ostr$[rbp]

; 1009 : }

  00069	48 8d a5 c8 00
	00 00		 lea	 rsp, QWORD PTR [rbp+200]
  00070	5f		 pop	 rdi
  00071	5d		 pop	 rbp
  00072	c3		 ret	 0
??$endl@DU?$char_traits@D@std@@@std@@YAAEAV?$basic_ostream@DU?$char_traits@D@std@@@0@AEAV10@@Z ENDP ; std::endl<char,std::char_traits<char> >
_TEXT	ENDS
; Function compile flags: /Odtp /RTCsu /ZI
; File C:\Program Files\Microsoft Visual Studio\2022\Community\VC\Tools\MSVC\14.34.31933\include\ostream
;	COMDAT ??$?6U?$char_traits@D@std@@@std@@YAAEAV?$basic_ostream@DU?$char_traits@D@std@@@0@AEAV10@PEBD@Z
_TEXT	SEGMENT
_State$ = 4
_Count$ = 40
_Pad$ = 72
_Ok$ = 104
$T4 = 340
$T5 = 372
$T6 = 404
$T7 = 436
$T8 = 472
tv300 = 484
tv295 = 484
tv139 = 484
tv301 = 488
tv298 = 488
tv296 = 488
tv137 = 488
tv302 = 496
tv299 = 496
tv297 = 496
__$ArrayPad$ = 504
_Ostr$ = 544
_Val$ = 552
??$?6U?$char_traits@D@std@@@std@@YAAEAV?$basic_ostream@DU?$char_traits@D@std@@@0@AEAV10@PEBD@Z PROC ; std::operator<<<std::char_traits<char> >, COMDAT

; 761  : basic_ostream<char, _Traits>& operator<<(basic_ostream<char, _Traits>& _Ostr, const char* _Val) {

$LN25:
  00000	48 89 54 24 10	 mov	 QWORD PTR [rsp+16], rdx
  00005	48 89 4c 24 08	 mov	 QWORD PTR [rsp+8], rcx
  0000a	55		 push	 rbp
  0000b	57		 push	 rdi
  0000c	48 81 ec 28 02
	00 00		 sub	 rsp, 552		; 00000228H
  00013	48 8d 6c 24 20	 lea	 rbp, QWORD PTR [rsp+32]
  00018	48 8d 7c 24 20	 lea	 rdi, QWORD PTR [rsp+32]
  0001d	b9 52 00 00 00	 mov	 ecx, 82			; 00000052H
  00022	b8 cc cc cc cc	 mov	 eax, -858993460		; ccccccccH
  00027	f3 ab		 rep stosd
  00029	48 8b 8c 24 48
	02 00 00	 mov	 rcx, QWORD PTR [rsp+584]
  00031	48 8b 05 00 00
	00 00		 mov	 rax, QWORD PTR __security_cookie
  00038	48 33 c5	 xor	 rax, rbp
  0003b	48 89 85 f8 01
	00 00		 mov	 QWORD PTR __$ArrayPad$[rbp], rax
  00042	48 8d 0d 00 00
	00 00		 lea	 rcx, OFFSET FLAT:__7B331E11_ostream
  00049	e8 00 00 00 00	 call	 __CheckForDebuggerJustMyCode

; 762  :     // insert NTBS into char stream
; 763  :     using _Elem = char;
; 764  :     using _Myos = basic_ostream<_Elem, _Traits>;
; 765  : 
; 766  :     ios_base::iostate _State = ios_base::goodbit;

  0004e	c7 45 04 00 00
	00 00		 mov	 DWORD PTR _State$[rbp], 0

; 767  :     streamsize _Count        = static_cast<streamsize>(_Traits::length(_Val));

  00055	48 8b 8d 28 02
	00 00		 mov	 rcx, QWORD PTR _Val$[rbp]
  0005c	e8 00 00 00 00	 call	 ?length@?$_Narrow_char_traits@DH@std@@SA_KQEBD@Z ; std::_Narrow_char_traits<char,int>::length
  00061	48 89 45 28	 mov	 QWORD PTR _Count$[rbp], rax

; 768  :     streamsize _Pad          = _Ostr.width() <= 0 || _Ostr.width() <= _Count ? 0 : _Ostr.width() - _Count;

  00065	48 8b 85 20 02
	00 00		 mov	 rax, QWORD PTR _Ostr$[rbp]
  0006c	48 8b 00	 mov	 rax, QWORD PTR [rax]
  0006f	48 63 40 04	 movsxd	 rax, DWORD PTR [rax+4]
  00073	48 8b 8d 20 02
	00 00		 mov	 rcx, QWORD PTR _Ostr$[rbp]
  0007a	48 03 c8	 add	 rcx, rax
  0007d	48 8b c1	 mov	 rax, rcx
  00080	48 8b c8	 mov	 rcx, rax
  00083	ff 15 00 00 00
	00		 call	 QWORD PTR __imp_?width@ios_base@std@@QEBA_JXZ
  00089	48 85 c0	 test	 rax, rax
  0008c	7e 5b		 jle	 SHORT $LN17@operator
  0008e	48 8b 85 20 02
	00 00		 mov	 rax, QWORD PTR _Ostr$[rbp]
  00095	48 8b 00	 mov	 rax, QWORD PTR [rax]
  00098	48 63 40 04	 movsxd	 rax, DWORD PTR [rax+4]
  0009c	48 8b 8d 20 02
	00 00		 mov	 rcx, QWORD PTR _Ostr$[rbp]
  000a3	48 03 c8	 add	 rcx, rax
  000a6	48 8b c1	 mov	 rax, rcx
  000a9	48 8b c8	 mov	 rcx, rax
  000ac	ff 15 00 00 00
	00		 call	 QWORD PTR __imp_?width@ios_base@std@@QEBA_JXZ
  000b2	48 3b 45 28	 cmp	 rax, QWORD PTR _Count$[rbp]
  000b6	7e 31		 jle	 SHORT $LN17@operator
  000b8	48 8b 85 20 02
	00 00		 mov	 rax, QWORD PTR _Ostr$[rbp]
  000bf	48 8b 00	 mov	 rax, QWORD PTR [rax]
  000c2	48 63 40 04	 movsxd	 rax, DWORD PTR [rax+4]
  000c6	48 8b 8d 20 02
	00 00		 mov	 rcx, QWORD PTR _Ostr$[rbp]
  000cd	48 03 c8	 add	 rcx, rax
  000d0	48 8b c1	 mov	 rax, rcx
  000d3	48 8b c8	 mov	 rcx, rax
  000d6	ff 15 00 00 00
	00		 call	 QWORD PTR __imp_?width@ios_base@std@@QEBA_JXZ
  000dc	48 2b 45 28	 sub	 rax, QWORD PTR _Count$[rbp]
  000e0	48 89 85 e8 01
	00 00		 mov	 QWORD PTR tv137[rbp], rax
  000e7	eb 0b		 jmp	 SHORT $LN18@operator
$LN17@operator:
  000e9	48 c7 85 e8 01
	00 00 00 00 00
	00		 mov	 QWORD PTR tv137[rbp], 0
$LN18@operator:
  000f4	48 8b 85 e8 01
	00 00		 mov	 rax, QWORD PTR tv137[rbp]
  000fb	48 89 45 48	 mov	 QWORD PTR _Pad$[rbp], rax

; 769  :     const typename _Myos::sentry _Ok(_Ostr);

  000ff	48 8b 95 20 02
	00 00		 mov	 rdx, QWORD PTR _Ostr$[rbp]
  00106	48 8d 4d 68	 lea	 rcx, QWORD PTR _Ok$[rbp]
  0010a	e8 00 00 00 00	 call	 ??0sentry@?$basic_ostream@DU?$char_traits@D@std@@@std@@QEAA@AEAV12@@Z ; std::basic_ostream<char,std::char_traits<char> >::sentry::sentry
  0010f	90		 npad	 1

; 770  : 
; 771  :     if (!_Ok) {

  00110	48 8d 4d 68	 lea	 rcx, QWORD PTR _Ok$[rbp]
  00114	e8 00 00 00 00	 call	 ??Bsentry@?$basic_ostream@DU?$char_traits@D@std@@@std@@QEBA_NXZ ; std::basic_ostream<char,std::char_traits<char> >::sentry::operator bool
  00119	0f b6 c0	 movzx	 eax, al
  0011c	85 c0		 test	 eax, eax
  0011e	75 0e		 jne	 SHORT $LN8@operator

; 772  :         _State |= ios_base::badbit;

  00120	8b 45 04	 mov	 eax, DWORD PTR _State$[rbp]
  00123	83 c8 04	 or	 eax, 4
  00126	89 45 04	 mov	 DWORD PTR _State$[rbp], eax

; 773  :     } else { // state okay, insert

  00129	e9 67 02 00 00	 jmp	 $LN9@operator
$LN8@operator:

; 774  :         _TRY_IO_BEGIN
; 775  :         if ((_Ostr.flags() & ios_base::adjustfield) != ios_base::left) {

  0012e	48 8b 85 20 02
	00 00		 mov	 rax, QWORD PTR _Ostr$[rbp]
  00135	48 8b 00	 mov	 rax, QWORD PTR [rax]
  00138	48 63 40 04	 movsxd	 rax, DWORD PTR [rax+4]
  0013c	48 8b 8d 20 02
	00 00		 mov	 rcx, QWORD PTR _Ostr$[rbp]
  00143	48 03 c8	 add	 rcx, rax
  00146	48 8b c1	 mov	 rax, rcx
  00149	48 8b c8	 mov	 rcx, rax
  0014c	ff 15 00 00 00
	00		 call	 QWORD PTR __imp_?flags@ios_base@std@@QEBAHXZ
  00152	89 85 e4 01 00
	00		 mov	 DWORD PTR tv139[rbp], eax
  00158	8b 85 e4 01 00
	00		 mov	 eax, DWORD PTR tv139[rbp]
  0015e	25 c0 01 00 00	 and	 eax, 448		; 000001c0H
  00163	83 f8 40	 cmp	 eax, 64			; 00000040H
  00166	0f 84 c8 00 00
	00		 je	 $LN11@operator

; 776  :             for (; 0 < _Pad; --_Pad) { // pad on left

  0016c	eb 0b		 jmp	 SHORT $LN4@operator
$LN2@operator:
  0016e	48 8b 45 48	 mov	 rax, QWORD PTR _Pad$[rbp]
  00172	48 ff c8	 dec	 rax
  00175	48 89 45 48	 mov	 QWORD PTR _Pad$[rbp], rax
$LN4@operator:
  00179	48 83 7d 48 00	 cmp	 QWORD PTR _Pad$[rbp], 0
  0017e	0f 8e b0 00 00
	00		 jle	 $LN11@operator

; 777  :                 if (_Traits::eq_int_type(_Traits::eof(), _Ostr.rdbuf()->sputc(_Ostr.fill()))) {

  00184	48 8b 85 20 02
	00 00		 mov	 rax, QWORD PTR _Ostr$[rbp]
  0018b	48 8b 00	 mov	 rax, QWORD PTR [rax]
  0018e	48 63 40 04	 movsxd	 rax, DWORD PTR [rax+4]
  00192	48 8b 8d 20 02
	00 00		 mov	 rcx, QWORD PTR _Ostr$[rbp]
  00199	48 03 c8	 add	 rcx, rax
  0019c	48 8b c1	 mov	 rax, rcx
  0019f	48 8b c8	 mov	 rcx, rax
  001a2	ff 15 00 00 00
	00		 call	 QWORD PTR __imp_?fill@?$basic_ios@DU?$char_traits@D@std@@@std@@QEBADXZ
  001a8	88 85 e4 01 00
	00		 mov	 BYTE PTR tv295[rbp], al
  001ae	48 8b 85 20 02
	00 00		 mov	 rax, QWORD PTR _Ostr$[rbp]
  001b5	48 8b 00	 mov	 rax, QWORD PTR [rax]
  001b8	48 63 40 04	 movsxd	 rax, DWORD PTR [rax+4]
  001bc	48 8b 8d 20 02
	00 00		 mov	 rcx, QWORD PTR _Ostr$[rbp]
  001c3	48 03 c8	 add	 rcx, rax
  001c6	48 8b c1	 mov	 rax, rcx
  001c9	48 8b c8	 mov	 rcx, rax
  001cc	ff 15 00 00 00
	00		 call	 QWORD PTR __imp_?rdbuf@?$basic_ios@DU?$char_traits@D@std@@@std@@QEBAPEAV?$basic_streambuf@DU?$char_traits@D@std@@@2@XZ
  001d2	48 89 85 e8 01
	00 00		 mov	 QWORD PTR tv296[rbp], rax
  001d9	0f b6 95 e4 01
	00 00		 movzx	 edx, BYTE PTR tv295[rbp]
  001e0	48 8b 8d e8 01
	00 00		 mov	 rcx, QWORD PTR tv296[rbp]
  001e7	ff 15 00 00 00
	00		 call	 QWORD PTR __imp_?sputc@?$basic_streambuf@DU?$char_traits@D@std@@@std@@QEAAHD@Z
  001ed	89 85 f0 01 00
	00		 mov	 DWORD PTR tv297[rbp], eax
  001f3	8b 85 f0 01 00
	00		 mov	 eax, DWORD PTR tv297[rbp]
  001f9	89 85 54 01 00
	00		 mov	 DWORD PTR $T4[rbp], eax
  001ff	e8 00 00 00 00	 call	 ?eof@?$_Narrow_char_traits@DH@std@@SAHXZ ; std::_Narrow_char_traits<char,int>::eof
  00204	89 85 74 01 00
	00		 mov	 DWORD PTR $T5[rbp], eax
  0020a	48 8d 95 54 01
	00 00		 lea	 rdx, QWORD PTR $T4[rbp]
  00211	48 8d 8d 74 01
	00 00		 lea	 rcx, QWORD PTR $T5[rbp]
  00218	e8 00 00 00 00	 call	 ?eq_int_type@?$_Narrow_char_traits@DH@std@@SA_NAEBH0@Z ; std::_Narrow_char_traits<char,int>::eq_int_type
  0021d	0f b6 c0	 movzx	 eax, al
  00220	85 c0		 test	 eax, eax
  00222	74 0b		 je	 SHORT $LN12@operator

; 778  :                     _State |= ios_base::badbit; // insertion failed, quit

  00224	8b 45 04	 mov	 eax, DWORD PTR _State$[rbp]
  00227	83 c8 04	 or	 eax, 4
  0022a	89 45 04	 mov	 DWORD PTR _State$[rbp], eax

; 779  :                     break;

  0022d	eb 05		 jmp	 SHORT $LN11@operator
$LN12@operator:

; 780  :                 }
; 781  :             }

  0022f	e9 3a ff ff ff	 jmp	 $LN2@operator
$LN11@operator:

; 782  :         }
; 783  : 
; 784  :         if (_State == ios_base::goodbit && _Ostr.rdbuf()->sputn(_Val, _Count) != _Count) {

  00234	83 7d 04 00	 cmp	 DWORD PTR _State$[rbp], 0
  00238	75 60		 jne	 SHORT $LN13@operator
  0023a	48 8b 85 20 02
	00 00		 mov	 rax, QWORD PTR _Ostr$[rbp]
  00241	48 8b 00	 mov	 rax, QWORD PTR [rax]
  00244	48 63 40 04	 movsxd	 rax, DWORD PTR [rax+4]
  00248	48 8b 8d 20 02
	00 00		 mov	 rcx, QWORD PTR _Ostr$[rbp]
  0024f	48 03 c8	 add	 rcx, rax
  00252	48 8b c1	 mov	 rax, rcx
  00255	48 8b c8	 mov	 rcx, rax
  00258	ff 15 00 00 00
	00		 call	 QWORD PTR __imp_?rdbuf@?$basic_ios@DU?$char_traits@D@std@@@std@@QEBAPEAV?$basic_streambuf@DU?$char_traits@D@std@@@2@XZ
  0025e	48 89 85 e8 01
	00 00		 mov	 QWORD PTR tv298[rbp], rax
  00265	4c 8b 45 28	 mov	 r8, QWORD PTR _Count$[rbp]
  00269	48 8b 95 28 02
	00 00		 mov	 rdx, QWORD PTR _Val$[rbp]
  00270	48 8b 8d e8 01
	00 00		 mov	 rcx, QWORD PTR tv298[rbp]
  00277	ff 15 00 00 00
	00		 call	 QWORD PTR __imp_?sputn@?$basic_streambuf@DU?$char_traits@D@std@@@std@@QEAA_JPEBD_J@Z
  0027d	48 89 85 f0 01
	00 00		 mov	 QWORD PTR tv299[rbp], rax
  00284	48 8b 45 28	 mov	 rax, QWORD PTR _Count$[rbp]
  00288	48 39 85 f0 01
	00 00		 cmp	 QWORD PTR tv299[rbp], rax
  0028f	74 09		 je	 SHORT $LN13@operator

; 785  :             _State |= ios_base::badbit;

  00291	8b 45 04	 mov	 eax, DWORD PTR _State$[rbp]
  00294	83 c8 04	 or	 eax, 4
  00297	89 45 04	 mov	 DWORD PTR _State$[rbp], eax
$LN13@operator:

; 786  :         }
; 787  : 
; 788  :         if (_State == ios_base::goodbit) {

  0029a	83 7d 04 00	 cmp	 DWORD PTR _State$[rbp], 0
  0029e	0f 85 c8 00 00
	00		 jne	 $LN14@operator

; 789  :             for (; 0 < _Pad; --_Pad) { // pad on right

  002a4	eb 0b		 jmp	 SHORT $LN7@operator
$LN5@operator:
  002a6	48 8b 45 48	 mov	 rax, QWORD PTR _Pad$[rbp]
  002aa	48 ff c8	 dec	 rax
  002ad	48 89 45 48	 mov	 QWORD PTR _Pad$[rbp], rax
$LN7@operator:
  002b1	48 83 7d 48 00	 cmp	 QWORD PTR _Pad$[rbp], 0
  002b6	0f 8e b0 00 00
	00		 jle	 $LN14@operator

; 790  :                 if (_Traits::eq_int_type(_Traits::eof(), _Ostr.rdbuf()->sputc(_Ostr.fill()))) {

  002bc	48 8b 85 20 02
	00 00		 mov	 rax, QWORD PTR _Ostr$[rbp]
  002c3	48 8b 00	 mov	 rax, QWORD PTR [rax]
  002c6	48 63 40 04	 movsxd	 rax, DWORD PTR [rax+4]
  002ca	48 8b 8d 20 02
	00 00		 mov	 rcx, QWORD PTR _Ostr$[rbp]
  002d1	48 03 c8	 add	 rcx, rax
  002d4	48 8b c1	 mov	 rax, rcx
  002d7	48 8b c8	 mov	 rcx, rax
  002da	ff 15 00 00 00
	00		 call	 QWORD PTR __imp_?fill@?$basic_ios@DU?$char_traits@D@std@@@std@@QEBADXZ
  002e0	88 85 e4 01 00
	00		 mov	 BYTE PTR tv300[rbp], al
  002e6	48 8b 85 20 02
	00 00		 mov	 rax, QWORD PTR _Ostr$[rbp]
  002ed	48 8b 00	 mov	 rax, QWORD PTR [rax]
  002f0	48 63 40 04	 movsxd	 rax, DWORD PTR [rax+4]
  002f4	48 8b 8d 20 02
	00 00		 mov	 rcx, QWORD PTR _Ostr$[rbp]
  002fb	48 03 c8	 add	 rcx, rax
  002fe	48 8b c1	 mov	 rax, rcx
  00301	48 8b c8	 mov	 rcx, rax
  00304	ff 15 00 00 00
	00		 call	 QWORD PTR __imp_?rdbuf@?$basic_ios@DU?$char_traits@D@std@@@std@@QEBAPEAV?$basic_streambuf@DU?$char_traits@D@std@@@2@XZ
  0030a	48 89 85 e8 01
	00 00		 mov	 QWORD PTR tv301[rbp], rax
  00311	0f b6 95 e4 01
	00 00		 movzx	 edx, BYTE PTR tv300[rbp]
  00318	48 8b 8d e8 01
	00 00		 mov	 rcx, QWORD PTR tv301[rbp]
  0031f	ff 15 00 00 00
	00		 call	 QWORD PTR __imp_?sputc@?$basic_streambuf@DU?$char_traits@D@std@@@std@@QEAAHD@Z
  00325	89 85 f0 01 00
	00		 mov	 DWORD PTR tv302[rbp], eax
  0032b	8b 85 f0 01 00
	00		 mov	 eax, DWORD PTR tv302[rbp]
  00331	89 85 94 01 00
	00		 mov	 DWORD PTR $T6[rbp], eax
  00337	e8 00 00 00 00	 call	 ?eof@?$_Narrow_char_traits@DH@std@@SAHXZ ; std::_Narrow_char_traits<char,int>::eof
  0033c	89 85 b4 01 00
	00		 mov	 DWORD PTR $T7[rbp], eax
  00342	48 8d 95 94 01
	00 00		 lea	 rdx, QWORD PTR $T6[rbp]
  00349	48 8d 8d b4 01
	00 00		 lea	 rcx, QWORD PTR $T7[rbp]
  00350	e8 00 00 00 00	 call	 ?eq_int_type@?$_Narrow_char_traits@DH@std@@SA_NAEBH0@Z ; std::_Narrow_char_traits<char,int>::eq_int_type
  00355	0f b6 c0	 movzx	 eax, al
  00358	85 c0		 test	 eax, eax
  0035a	74 0b		 je	 SHORT $LN15@operator

; 791  :                     _State |= ios_base::badbit; // insertion failed, quit

  0035c	8b 45 04	 mov	 eax, DWORD PTR _State$[rbp]
  0035f	83 c8 04	 or	 eax, 4
  00362	89 45 04	 mov	 DWORD PTR _State$[rbp], eax

; 792  :                     break;

  00365	eb 05		 jmp	 SHORT $LN14@operator
$LN15@operator:

; 793  :                 }
; 794  :             }

  00367	e9 3a ff ff ff	 jmp	 $LN5@operator
$LN14@operator:

; 795  :         }
; 796  : 
; 797  :         _Ostr.width(0);

  0036c	48 8b 85 20 02
	00 00		 mov	 rax, QWORD PTR _Ostr$[rbp]
  00373	48 8b 00	 mov	 rax, QWORD PTR [rax]
  00376	48 63 40 04	 movsxd	 rax, DWORD PTR [rax+4]
  0037a	48 8b 8d 20 02
	00 00		 mov	 rcx, QWORD PTR _Ostr$[rbp]
  00381	48 03 c8	 add	 rcx, rax
  00384	48 8b c1	 mov	 rax, rcx
  00387	33 d2		 xor	 edx, edx
  00389	48 8b c8	 mov	 rcx, rax
  0038c	ff 15 00 00 00
	00		 call	 QWORD PTR __imp_?width@ios_base@std@@QEAA_J_J@Z
  00392	90		 npad	 1
  00393	eb 00		 jmp	 SHORT $LN9@operator
$LN23@operator:
$LN9@operator:

; 798  :         _CATCH_IO_(ios_base, _Ostr)
; 799  :     }
; 800  : 
; 801  :     _Ostr.setstate(_State);

  00395	48 8b 85 20 02
	00 00		 mov	 rax, QWORD PTR _Ostr$[rbp]
  0039c	48 8b 00	 mov	 rax, QWORD PTR [rax]
  0039f	48 63 40 04	 movsxd	 rax, DWORD PTR [rax+4]
  003a3	48 8b 8d 20 02
	00 00		 mov	 rcx, QWORD PTR _Ostr$[rbp]
  003aa	48 03 c8	 add	 rcx, rax
  003ad	48 8b c1	 mov	 rax, rcx
  003b0	45 33 c0	 xor	 r8d, r8d
  003b3	8b 55 04	 mov	 edx, DWORD PTR _State$[rbp]
  003b6	48 8b c8	 mov	 rcx, rax
  003b9	ff 15 00 00 00
	00		 call	 QWORD PTR __imp_?setstate@?$basic_ios@DU?$char_traits@D@std@@@std@@QEAAXH_N@Z

; 802  :     return _Ostr;

  003bf	48 8b 85 20 02
	00 00		 mov	 rax, QWORD PTR _Ostr$[rbp]
  003c6	48 89 85 d8 01
	00 00		 mov	 QWORD PTR $T8[rbp], rax
  003cd	48 8d 4d 68	 lea	 rcx, QWORD PTR _Ok$[rbp]
  003d1	e8 00 00 00 00	 call	 ??1sentry@?$basic_ostream@DU?$char_traits@D@std@@@std@@QEAA@XZ ; std::basic_ostream<char,std::char_traits<char> >::sentry::~sentry
  003d6	48 8b 85 d8 01
	00 00		 mov	 rax, QWORD PTR $T8[rbp]

; 803  : }

  003dd	48 8b f8	 mov	 rdi, rax
  003e0	48 8d 4d e0	 lea	 rcx, QWORD PTR [rbp-32]
  003e4	48 8d 15 00 00
	00 00		 lea	 rdx, OFFSET FLAT:??$?6U?$char_traits@D@std@@@std@@YAAEAV?$basic_ostream@DU?$char_traits@D@std@@@0@AEAV10@PEBD@Z$rtcFrameData
  003eb	e8 00 00 00 00	 call	 _RTC_CheckStackVars
  003f0	48 8b c7	 mov	 rax, rdi
  003f3	48 8b 8d f8 01
	00 00		 mov	 rcx, QWORD PTR __$ArrayPad$[rbp]
  003fa	48 33 cd	 xor	 rcx, rbp
  003fd	e8 00 00 00 00	 call	 __security_check_cookie
  00402	48 8d a5 08 02
	00 00		 lea	 rsp, QWORD PTR [rbp+520]
  00409	5f		 pop	 rdi
  0040a	5d		 pop	 rbp
  0040b	c3		 ret	 0
??$?6U?$char_traits@D@std@@@std@@YAAEAV?$basic_ostream@DU?$char_traits@D@std@@@0@AEAV10@PEBD@Z ENDP ; std::operator<<<std::char_traits<char> >
_TEXT	ENDS
; Function compile flags: /Odtp /RTCsu /ZI
;	COMDAT text$x
text$x	SEGMENT
_State$ = 4
_Count$ = 40
_Pad$ = 72
_Ok$ = 104
$T4 = 340
$T5 = 372
$T6 = 404
$T7 = 436
$T8 = 472
tv300 = 484
tv295 = 484
tv139 = 484
tv301 = 488
tv298 = 488
tv296 = 488
tv137 = 488
tv302 = 496
tv299 = 496
tv297 = 496
__$ArrayPad$ = 504
_Ostr$ = 544
_Val$ = 552
?dtor$0@?0???$?6U?$char_traits@D@std@@@std@@YAAEAV?$basic_ostream@DU?$char_traits@D@std@@@0@AEAV10@PEBD@Z@4HA PROC ; `std::operator<<<std::char_traits<char> >'::`1'::dtor$0
  00000	48 89 4c 24 08	 mov	 QWORD PTR [rsp+8], rcx
  00005	48 89 54 24 10	 mov	 QWORD PTR [rsp+16], rdx
  0000a	55		 push	 rbp
  0000b	57		 push	 rdi
  0000c	48 83 ec 28	 sub	 rsp, 40			; 00000028H
  00010	48 8d 6a 20	 lea	 rbp, QWORD PTR [rdx+32]
  00014	48 8d 4d 68	 lea	 rcx, QWORD PTR _Ok$[rbp]
  00018	e8 00 00 00 00	 call	 ??1sentry@?$basic_ostream@DU?$char_traits@D@std@@@std@@QEAA@XZ ; std::basic_ostream<char,std::char_traits<char> >::sentry::~sentry
  0001d	48 83 c4 28	 add	 rsp, 40			; 00000028H
  00021	5f		 pop	 rdi
  00022	5d		 pop	 rbp
  00023	c3		 ret	 0
?dtor$0@?0???$?6U?$char_traits@D@std@@@std@@YAAEAV?$basic_ostream@DU?$char_traits@D@std@@@0@AEAV10@PEBD@Z@4HA ENDP ; `std::operator<<<std::char_traits<char> >'::`1'::dtor$0
text$x	ENDS
; Function compile flags: /Odtp /RTCsu /ZI
;	COMDAT text$x
text$x	SEGMENT
_State$ = 4
_Count$ = 40
_Pad$ = 72
_Ok$ = 104
$T4 = 340
$T5 = 372
$T6 = 404
$T7 = 436
$T8 = 472
tv300 = 484
tv295 = 484
tv139 = 484
tv301 = 488
tv298 = 488
tv296 = 488
tv137 = 488
tv302 = 496
tv299 = 496
tv297 = 496
__$ArrayPad$ = 504
_Ostr$ = 544
_Val$ = 552
?catch$1@?0???$?6U?$char_traits@D@std@@@std@@YAAEAV?$basic_ostream@DU?$char_traits@D@std@@@0@AEAV10@PEBD@Z@4HA PROC ; `std::operator<<<std::char_traits<char> >'::`1'::catch$1

; 798  :         _CATCH_IO_(ios_base, _Ostr)

  00000	48 89 4c 24 08	 mov	 QWORD PTR [rsp+8], rcx
  00005	48 89 54 24 10	 mov	 QWORD PTR [rsp+16], rdx
  0000a	55		 push	 rbp
  0000b	57		 push	 rdi
  0000c	48 83 ec 28	 sub	 rsp, 40			; 00000028H
  00010	48 8d 6a 20	 lea	 rbp, QWORD PTR [rdx+32]
__catch$??$?6U?$char_traits@D@std@@@std@@YAAEAV?$basic_ostream@DU?$char_traits@D@std@@@0@AEAV10@PEBD@Z$0:
  00014	48 8b 85 20 02
	00 00		 mov	 rax, QWORD PTR _Ostr$[rbp]
  0001b	48 8b 00	 mov	 rax, QWORD PTR [rax]
  0001e	48 63 40 04	 movsxd	 rax, DWORD PTR [rax+4]
  00022	48 8b 8d 20 02
	00 00		 mov	 rcx, QWORD PTR _Ostr$[rbp]
  00029	48 03 c8	 add	 rcx, rax
  0002c	48 8b c1	 mov	 rax, rcx
  0002f	41 b0 01	 mov	 r8b, 1
  00032	ba 04 00 00 00	 mov	 edx, 4
  00037	48 8b c8	 mov	 rcx, rax
  0003a	ff 15 00 00 00
	00		 call	 QWORD PTR __imp_?setstate@?$basic_ios@DU?$char_traits@D@std@@@std@@QEAAXH_N@Z
  00040	90		 npad	 1
  00041	48 8d 05 00 00
	00 00		 lea	 rax, $LN23@catch$1
  00048	48 83 c4 28	 add	 rsp, 40			; 00000028H
  0004c	5f		 pop	 rdi
  0004d	5d		 pop	 rbp
  0004e	c3		 ret	 0
  0004f	cc		 int	 3
?catch$1@?0???$?6U?$char_traits@D@std@@@std@@YAAEAV?$basic_ostream@DU?$char_traits@D@std@@@0@AEAV10@PEBD@Z@4HA ENDP ; `std::operator<<<std::char_traits<char> >'::`1'::catch$1
text$x	ENDS
; Function compile flags: /Odtp /RTCsu /ZI
; File D:\\  \1\1\data\data.cpp
;	COMDAT main
_TEXT	SEGMENT
date$ = 4
__$ArrayPad$ = 216
main	PROC						; COMDAT

; 10   : int main() {

$LN9:
  00000	40 55		 push	 rbp
  00002	57		 push	 rdi
  00003	48 81 ec 08 01
	00 00		 sub	 rsp, 264		; 00000108H
  0000a	48 8d 6c 24 20	 lea	 rbp, QWORD PTR [rsp+32]
  0000f	48 8d 7c 24 20	 lea	 rdi, QWORD PTR [rsp+32]
  00014	b9 0a 00 00 00	 mov	 ecx, 10
  00019	b8 cc cc cc cc	 mov	 eax, -858993460		; ccccccccH
  0001e	f3 ab		 rep stosd
  00020	48 8b 05 00 00
	00 00		 mov	 rax, QWORD PTR __security_cookie
  00027	48 33 c5	 xor	 rax, rbp
  0002a	48 89 85 d8 00
	00 00		 mov	 QWORD PTR __$ArrayPad$[rbp], rax
  00031	48 8d 0d 00 00
	00 00		 lea	 rcx, OFFSET FLAT:__182DED94_data@cpp
  00038	e8 00 00 00 00	 call	 __CheckForDebuggerJustMyCode

; 11   : 	setlocale(LC_ALL, "Russian");

  0003d	48 8d 15 00 00
	00 00		 lea	 rdx, OFFSET FLAT:??_C@_07PEAPJBGG@Russian@
  00044	33 c9		 xor	 ecx, ecx
  00046	ff 15 00 00 00
	00		 call	 QWORD PTR __imp_setlocale

; 12   : 	int date;
; 13   : 	cout << "  (): ";

  0004c	48 8d 15 00 00
	00 00		 lea	 rdx, OFFSET FLAT:??_C@_0BK@EKFAEONN@?B?b?e?d?h?r?e?5?d?$OA?r?s?5?$CI?D?D?L?L?C?C?C?C?$CJ?3?5@
  00053	48 8b 0d 00 00
	00 00		 mov	 rcx, QWORD PTR __imp_?cout@std@@3V?$basic_ostream@DU?$char_traits@D@std@@@1@A
  0005a	e8 00 00 00 00	 call	 ??$?6U?$char_traits@D@std@@@std@@YAAEAV?$basic_ostream@DU?$char_traits@D@std@@@0@AEAV10@PEBD@Z ; std::operator<<<std::char_traits<char> >

; 14   : 	cin >> date;

  0005f	48 8d 55 04	 lea	 rdx, QWORD PTR date$[rbp]
  00063	48 8b 0d 00 00
	00 00		 mov	 rcx, QWORD PTR __imp_?cin@std@@3V?$basic_istream@DU?$char_traits@D@std@@@1@A
  0006a	ff 15 00 00 00
	00		 call	 QWORD PTR __imp_??5?$basic_istream@DU?$char_traits@D@std@@@std@@QEAAAEAV01@AEAH@Z

; 15   : 	split(date);

  00070	8b 4d 04	 mov	 ecx, DWORD PTR date$[rbp]
  00073	e8 00 00 00 00	 call	 ?split@@YAXH@Z		; split

; 16   : 	if (check(year) == false || year == 0 || date <= 1000000) {

  00078	8b 0d 00 00 00
	00		 mov	 ecx, DWORD PTR ?year@@3HA ; year
  0007e	e8 00 00 00 00	 call	 ?check@@YA_NH@Z		; check
  00083	0f b6 c0	 movzx	 eax, al
  00086	85 c0		 test	 eax, eax
  00088	74 12		 je	 SHORT $LN3@main
  0008a	83 3d 00 00 00
	00 00		 cmp	 DWORD PTR ?year@@3HA, 0	; year
  00091	74 09		 je	 SHORT $LN3@main
  00093	81 7d 04 40 42
	0f 00		 cmp	 DWORD PTR date$[rbp], 1000000 ; 000f4240H
  0009a	7f 1b		 jg	 SHORT $LN2@main
$LN3@main:

; 17   : 		cout << " ";

  0009c	48 8d 15 00 00
	00 00		 lea	 rdx, OFFSET FLAT:??_C@_0BC@PNMOGPH@?M?e?j?n?p?p?e?j?r?m?$PL?i?5?b?b?n?d@
  000a3	48 8b 0d 00 00
	00 00		 mov	 rcx, QWORD PTR __imp_?cout@std@@3V?$basic_ostream@DU?$char_traits@D@std@@@1@A
  000aa	e8 00 00 00 00	 call	 ??$?6U?$char_traits@D@std@@@std@@YAAEAV?$basic_ostream@DU?$char_traits@D@std@@@0@AEAV10@PEBD@Z ; std::operator<<<std::char_traits<char> >

; 18   : 		exit(0);

  000af	33 c9		 xor	 ecx, ecx
  000b1	ff 15 00 00 00
	00		 call	 QWORD PTR __imp_exit
$LN2@main:

; 19   : 	}
; 20   : 	if (leap(year))

  000b7	8b 0d 00 00 00
	00		 mov	 ecx, DWORD PTR ?year@@3HA ; year
  000bd	e8 00 00 00 00	 call	 ?leap@@YA_NH@Z		; leap
  000c2	0f b6 c0	 movzx	 eax, al
  000c5	85 c0		 test	 eax, eax
  000c7	74 34		 je	 SHORT $LN4@main

; 21   : 		cout << year << " -  " << endl;

  000c9	8b 15 00 00 00
	00		 mov	 edx, DWORD PTR ?year@@3HA ; year
  000cf	48 8b 0d 00 00
	00 00		 mov	 rcx, QWORD PTR __imp_?cout@std@@3V?$basic_ostream@DU?$char_traits@D@std@@@1@A
  000d6	ff 15 00 00 00
	00		 call	 QWORD PTR __imp_??6?$basic_ostream@DU?$char_traits@D@std@@@std@@QEAAAEAV01@H@Z
  000dc	48 8d 15 00 00
	00 00		 lea	 rdx, OFFSET FLAT:??_C@_0BC@KOFKEHLC@?5?9?5?b?h?q?n?j?n?q?m?$PL?i?5?c?n?d@
  000e3	48 8b c8	 mov	 rcx, rax
  000e6	e8 00 00 00 00	 call	 ??$?6U?$char_traits@D@std@@@std@@YAAEAV?$basic_ostream@DU?$char_traits@D@std@@@0@AEAV10@PEBD@Z ; std::operator<<<std::char_traits<char> >
  000eb	48 8d 15 00 00
	00 00		 lea	 rdx, OFFSET FLAT:??$endl@DU?$char_traits@D@std@@@std@@YAAEAV?$basic_ostream@DU?$char_traits@D@std@@@0@AEAV10@@Z ; std::endl<char,std::char_traits<char> >
  000f2	48 8b c8	 mov	 rcx, rax
  000f5	ff 15 00 00 00
	00		 call	 QWORD PTR __imp_??6?$basic_ostream@DU?$char_traits@D@std@@@std@@QEAAAEAV01@P6AAEAV01@AEAV01@@Z@Z
  000fb	eb 32		 jmp	 SHORT $LN5@main
$LN4@main:

; 22   : 	else
; 23   : 		cout << year << " -  " << endl;

  000fd	8b 15 00 00 00
	00		 mov	 edx, DWORD PTR ?year@@3HA ; year
  00103	48 8b 0d 00 00
	00 00		 mov	 rcx, QWORD PTR __imp_?cout@std@@3V?$basic_ostream@DU?$char_traits@D@std@@@1@A
  0010a	ff 15 00 00 00
	00		 call	 QWORD PTR __imp_??6?$basic_ostream@DU?$char_traits@D@std@@@std@@QEAAAEAV01@H@Z
  00110	48 8d 15 00 00
	00 00		 lea	 rdx, OFFSET FLAT:??_C@_0BE@CCNHMNFG@?5?9?5?m?e?b?h?q?n?j?n?q?m?$PL?i?5?c?n?d@
  00117	48 8b c8	 mov	 rcx, rax
  0011a	e8 00 00 00 00	 call	 ??$?6U?$char_traits@D@std@@@std@@YAAEAV?$basic_ostream@DU?$char_traits@D@std@@@0@AEAV10@PEBD@Z ; std::operator<<<std::char_traits<char> >
  0011f	48 8d 15 00 00
	00 00		 lea	 rdx, OFFSET FLAT:??$endl@DU?$char_traits@D@std@@@std@@YAAEAV?$basic_ostream@DU?$char_traits@D@std@@@0@AEAV10@@Z ; std::endl<char,std::char_traits<char> >
  00126	48 8b c8	 mov	 rcx, rax
  00129	ff 15 00 00 00
	00		 call	 QWORD PTR __imp_??6?$basic_ostream@DU?$char_traits@D@std@@@std@@QEAAAEAV01@P6AAEAV01@AEAV01@@Z@Z
$LN5@main:

; 24   : 	cout << number(day, month, year) << " -   " << endl;

  0012f	44 8b 05 00 00
	00 00		 mov	 r8d, DWORD PTR ?year@@3HA ; year
  00136	8b 15 00 00 00
	00		 mov	 edx, DWORD PTR ?month@@3HA ; month
  0013c	8b 0d 00 00 00
	00		 mov	 ecx, DWORD PTR ?day@@3HA ; day
  00142	e8 00 00 00 00	 call	 ?number@@YAHHHH@Z	; number
  00147	8b d0		 mov	 edx, eax
  00149	48 8b 0d 00 00
	00 00		 mov	 rcx, QWORD PTR __imp_?cout@std@@3V?$basic_ostream@DU?$char_traits@D@std@@@1@A
  00150	ff 15 00 00 00
	00		 call	 QWORD PTR __imp_??6?$basic_ostream@DU?$char_traits@D@std@@@std@@QEAAAEAV01@H@Z
  00156	48 8d 15 00 00
	00 00		 lea	 rdx, OFFSET FLAT:??_C@_0BI@OJHANM@?5?9?5?o?n?p?$PP?d?j?n?b?$PL?i?5?m?n?l?e?p?5?d?m?$PP@
  0015d	48 8b c8	 mov	 rcx, rax
  00160	e8 00 00 00 00	 call	 ??$?6U?$char_traits@D@std@@@std@@YAAEAV?$basic_ostream@DU?$char_traits@D@std@@@0@AEAV10@PEBD@Z ; std::operator<<<std::char_traits<char> >
  00165	48 8d 15 00 00
	00 00		 lea	 rdx, OFFSET FLAT:??$endl@DU?$char_traits@D@std@@@std@@YAAEAV?$basic_ostream@DU?$char_traits@D@std@@@0@AEAV10@@Z ; std::endl<char,std::char_traits<char> >
  0016c	48 8b c8	 mov	 rcx, rax
  0016f	ff 15 00 00 00
	00		 call	 QWORD PTR __imp_??6?$basic_ostream@DU?$char_traits@D@std@@@std@@QEAAAEAV01@P6AAEAV01@AEAV01@@Z@Z

; 25   : 	cout << days(day, month, year) << "       (06.06)" << endl;

  00175	44 8b 05 00 00
	00 00		 mov	 r8d, DWORD PTR ?year@@3HA ; year
  0017c	8b 15 00 00 00
	00		 mov	 edx, DWORD PTR ?month@@3HA ; month
  00182	8b 0d 00 00 00
	00		 mov	 ecx, DWORD PTR ?day@@3HA ; day
  00188	e8 00 00 00 00	 call	 ?days@@YAHHHH@Z		; days
  0018d	8b d0		 mov	 edx, eax
  0018f	48 8b 0d 00 00
	00 00		 mov	 rcx, QWORD PTR __imp_?cout@std@@3V?$basic_ostream@DU?$char_traits@D@std@@@1@A
  00196	ff 15 00 00 00
	00		 call	 QWORD PTR __imp_??6?$basic_ostream@DU?$char_traits@D@std@@@std@@QEAAAEAV01@H@Z
  0019c	48 8d 15 00 00
	00 00		 lea	 rdx, OFFSET FLAT:??_C@_0CP@DGHNGODM@?5?d?m?e?i?5?d?n?5?a?k?h?f?$OA?i?x?e?c?n?5?l?n?e?c?n?5?d?m?$PP?5?p@
  001a3	48 8b c8	 mov	 rcx, rax
  001a6	e8 00 00 00 00	 call	 ??$?6U?$char_traits@D@std@@@std@@YAAEAV?$basic_ostream@DU?$char_traits@D@std@@@0@AEAV10@PEBD@Z ; std::operator<<<std::char_traits<char> >
  001ab	48 8d 15 00 00
	00 00		 lea	 rdx, OFFSET FLAT:??$endl@DU?$char_traits@D@std@@@std@@YAAEAV?$basic_ostream@DU?$char_traits@D@std@@@0@AEAV10@@Z ; std::endl<char,std::char_traits<char> >
  001b2	48 8b c8	 mov	 rcx, rax
  001b5	ff 15 00 00 00
	00		 call	 QWORD PTR __imp_??6?$basic_ostream@DU?$char_traits@D@std@@@std@@QEAAAEAV01@P6AAEAV01@AEAV01@@Z@Z

; 26   : }

  001bb	eb 02		 jmp	 SHORT $LN8@main
$LN6@main:
  001bd	eb 02		 jmp	 SHORT $LN7@main
$LN8@main:
  001bf	33 c0		 xor	 eax, eax
$LN7@main:
  001c1	48 8b f8	 mov	 rdi, rax
  001c4	48 8d 4d e0	 lea	 rcx, QWORD PTR [rbp-32]
  001c8	48 8d 15 00 00
	00 00		 lea	 rdx, OFFSET FLAT:main$rtcFrameData
  001cf	e8 00 00 00 00	 call	 _RTC_CheckStackVars
  001d4	48 8b c7	 mov	 rax, rdi
  001d7	48 8b 8d d8 00
	00 00		 mov	 rcx, QWORD PTR __$ArrayPad$[rbp]
  001de	48 33 cd	 xor	 rcx, rbp
  001e1	e8 00 00 00 00	 call	 __security_check_cookie
  001e6	48 8d a5 e8 00
	00 00		 lea	 rsp, QWORD PTR [rbp+232]
  001ed	5f		 pop	 rdi
  001ee	5d		 pop	 rbp
  001ef	c3		 ret	 0
main	ENDP
_TEXT	ENDS
; Function compile flags: /Odtp /RTCsu /ZI
; File D:\\  \1\1\data\data.cpp
;	COMDAT ?check@@YA_NH@Z
_TEXT	SEGMENT
year$ = 224
?check@@YA_NH@Z PROC					; check, COMDAT

; 63   : bool check(int year) {

$LN6:
  00000	89 4c 24 08	 mov	 DWORD PTR [rsp+8], ecx
  00004	55		 push	 rbp
  00005	57		 push	 rdi
  00006	48 81 ec e8 00
	00 00		 sub	 rsp, 232		; 000000e8H
  0000d	48 8d 6c 24 20	 lea	 rbp, QWORD PTR [rsp+32]
  00012	48 8d 0d 00 00
	00 00		 lea	 rcx, OFFSET FLAT:__182DED94_data@cpp
  00019	e8 00 00 00 00	 call	 __CheckForDebuggerJustMyCode

; 64   : 	if (day == 29 && leap(year))

  0001e	83 3d 00 00 00
	00 1d		 cmp	 DWORD PTR ?day@@3HA, 29	; day
  00025	75 16		 jne	 SHORT $LN2@check
  00027	8b 8d e0 00 00
	00		 mov	 ecx, DWORD PTR year$[rbp]
  0002d	e8 00 00 00 00	 call	 ?leap@@YA_NH@Z		; leap
  00032	0f b6 c0	 movzx	 eax, al
  00035	85 c0		 test	 eax, eax
  00037	74 04		 je	 SHORT $LN2@check

; 65   : 		return true;

  00039	b0 01		 mov	 al, 1
  0003b	eb 2b		 jmp	 SHORT $LN1@check
$LN2@check:

; 66   : 	if (day > twelve[month - 1])

  0003d	8b 05 00 00 00
	00		 mov	 eax, DWORD PTR ?month@@3HA ; month
  00043	ff c8		 dec	 eax
  00045	48 98		 cdqe
  00047	48 8d 0d 00 00
	00 00		 lea	 rcx, OFFSET FLAT:?twelve@@3PAHA ; twelve
  0004e	8b 04 81	 mov	 eax, DWORD PTR [rcx+rax*4]
  00051	39 05 00 00 00
	00		 cmp	 DWORD PTR ?day@@3HA, eax ; day
  00057	7e 04		 jle	 SHORT $LN3@check

; 67   : 		return false;

  00059	32 c0		 xor	 al, al
  0005b	eb 0b		 jmp	 SHORT $LN1@check
$LN3@check:

; 68   : 	if (month > 12)

  0005d	83 3d 00 00 00
	00 0c		 cmp	 DWORD PTR ?month@@3HA, 12 ; month
  00064	7e 02		 jle	 SHORT $LN4@check

; 69   : 		return false;

  00066	32 c0		 xor	 al, al
$LN4@check:
$LN1@check:

; 70   : }

  00068	48 8d a5 c8 00
	00 00		 lea	 rsp, QWORD PTR [rbp+200]
  0006f	5f		 pop	 rdi
  00070	5d		 pop	 rbp
  00071	c3		 ret	 0
?check@@YA_NH@Z ENDP					; check
_TEXT	ENDS
; Function compile flags: /Odtp /RTCsu /ZI
; File D:\\  \1\1\data\data.cpp
;	COMDAT ?days@@YAHHHH@Z
_TEXT	SEGMENT
birthday$ = 4
birthmonth$ = 36
tv95 = 244
tv67 = 244
day$ = 288
month$ = 296
year$ = 304
?days@@YAHHHH@Z PROC					; days, COMDAT

; 48   : int days(int day, int month, int year) {

$LN11:
  00000	44 89 44 24 18	 mov	 DWORD PTR [rsp+24], r8d
  00005	89 54 24 10	 mov	 DWORD PTR [rsp+16], edx
  00009	89 4c 24 08	 mov	 DWORD PTR [rsp+8], ecx
  0000d	55		 push	 rbp
  0000e	57		 push	 rdi
  0000f	48 81 ec 28 01
	00 00		 sub	 rsp, 296		; 00000128H
  00016	48 8d 6c 24 20	 lea	 rbp, QWORD PTR [rsp+32]
  0001b	48 8d 0d 00 00
	00 00		 lea	 rcx, OFFSET FLAT:__182DED94_data@cpp
  00022	e8 00 00 00 00	 call	 __CheckForDebuggerJustMyCode

; 49   : 	int birthday = 6, birthmonth = 6;

  00027	c7 45 04 06 00
	00 00		 mov	 DWORD PTR birthday$[rbp], 6
  0002e	c7 45 24 06 00
	00 00		 mov	 DWORD PTR birthmonth$[rbp], 6

; 50   : 	if (month == birthmonth && day == birthday)

  00035	8b 45 24	 mov	 eax, DWORD PTR birthmonth$[rbp]
  00038	39 85 28 01 00
	00		 cmp	 DWORD PTR month$[rbp], eax
  0003e	75 17		 jne	 SHORT $LN2@days
  00040	8b 45 04	 mov	 eax, DWORD PTR birthday$[rbp]
  00043	39 85 20 01 00
	00		 cmp	 DWORD PTR day$[rbp], eax
  00049	75 0c		 jne	 SHORT $LN2@days

; 51   : 		return 0;

  0004b	33 c0		 xor	 eax, eax
  0004d	e9 18 01 00 00	 jmp	 $LN1@days
  00052	e9 13 01 00 00	 jmp	 $LN3@days
$LN2@days:

; 52   : 	else if (month > birthmonth)

  00057	8b 45 24	 mov	 eax, DWORD PTR birthmonth$[rbp]
  0005a	39 85 28 01 00
	00		 cmp	 DWORD PTR month$[rbp], eax
  00060	7e 55		 jle	 SHORT $LN4@days

; 53   : 		return 365 - (number(day, month, year + 1) - number(birthday, birthmonth, year + 1));

  00062	8b 85 30 01 00
	00		 mov	 eax, DWORD PTR year$[rbp]
  00068	ff c0		 inc	 eax
  0006a	44 8b c0	 mov	 r8d, eax
  0006d	8b 95 28 01 00
	00		 mov	 edx, DWORD PTR month$[rbp]
  00073	8b 8d 20 01 00
	00		 mov	 ecx, DWORD PTR day$[rbp]
  00079	e8 00 00 00 00	 call	 ?number@@YAHHHH@Z	; number
  0007e	89 85 f4 00 00
	00		 mov	 DWORD PTR tv67[rbp], eax
  00084	8b 8d 30 01 00
	00		 mov	 ecx, DWORD PTR year$[rbp]
  0008a	ff c1		 inc	 ecx
  0008c	44 8b c1	 mov	 r8d, ecx
  0008f	8b 55 24	 mov	 edx, DWORD PTR birthmonth$[rbp]
  00092	8b 4d 04	 mov	 ecx, DWORD PTR birthday$[rbp]
  00095	e8 00 00 00 00	 call	 ?number@@YAHHHH@Z	; number
  0009a	8b 8d f4 00 00
	00		 mov	 ecx, DWORD PTR tv67[rbp]
  000a0	2b c8		 sub	 ecx, eax
  000a2	8b c1		 mov	 eax, ecx
  000a4	b9 6d 01 00 00	 mov	 ecx, 365		; 0000016dH
  000a9	2b c8		 sub	 ecx, eax
  000ab	8b c1		 mov	 eax, ecx
  000ad	e9 b8 00 00 00	 jmp	 $LN1@days
  000b2	e9 b3 00 00 00	 jmp	 $LN5@days
$LN4@days:

; 54   : 	else if (month == birthmonth && day > birthday) {

  000b7	8b 45 24	 mov	 eax, DWORD PTR birthmonth$[rbp]
  000ba	39 85 28 01 00
	00		 cmp	 DWORD PTR month$[rbp], eax
  000c0	75 6e		 jne	 SHORT $LN6@days
  000c2	8b 45 04	 mov	 eax, DWORD PTR birthday$[rbp]
  000c5	39 85 20 01 00
	00		 cmp	 DWORD PTR day$[rbp], eax
  000cb	7e 63		 jle	 SHORT $LN6@days

; 55   : 		if (day > birthday && leap(year + 1))

  000cd	8b 45 04	 mov	 eax, DWORD PTR birthday$[rbp]
  000d0	39 85 20 01 00
	00		 cmp	 DWORD PTR day$[rbp], eax
  000d6	7e 37		 jle	 SHORT $LN8@days
  000d8	8b 85 30 01 00
	00		 mov	 eax, DWORD PTR year$[rbp]
  000de	ff c0		 inc	 eax
  000e0	8b c8		 mov	 ecx, eax
  000e2	e8 00 00 00 00	 call	 ?leap@@YA_NH@Z		; leap
  000e7	0f b6 c0	 movzx	 eax, al
  000ea	85 c0		 test	 eax, eax
  000ec	74 21		 je	 SHORT $LN8@days

; 56   : 			return 366 - abs(day - birthday);

  000ee	8b 45 04	 mov	 eax, DWORD PTR birthday$[rbp]
  000f1	8b 8d 20 01 00
	00		 mov	 ecx, DWORD PTR day$[rbp]
  000f7	2b c8		 sub	 ecx, eax
  000f9	8b c1		 mov	 eax, ecx
  000fb	8b c8		 mov	 ecx, eax
  000fd	e8 00 00 00 00	 call	 abs
  00102	b9 6e 01 00 00	 mov	 ecx, 366		; 0000016eH
  00107	2b c8		 sub	 ecx, eax
  00109	8b c1		 mov	 eax, ecx
  0010b	eb 5d		 jmp	 SHORT $LN1@days
  0010d	eb 1f		 jmp	 SHORT $LN9@days
$LN8@days:

; 57   : 		else
; 58   : 			return 365 - abs(day - birthday);

  0010f	8b 45 04	 mov	 eax, DWORD PTR birthday$[rbp]
  00112	8b 8d 20 01 00
	00		 mov	 ecx, DWORD PTR day$[rbp]
  00118	2b c8		 sub	 ecx, eax
  0011a	8b c1		 mov	 eax, ecx
  0011c	8b c8		 mov	 ecx, eax
  0011e	e8 00 00 00 00	 call	 abs
  00123	b9 6d 01 00 00	 mov	 ecx, 365		; 0000016dH
  00128	2b c8		 sub	 ecx, eax
  0012a	8b c1		 mov	 eax, ecx
  0012c	eb 3c		 jmp	 SHORT $LN1@days
$LN9@days:

; 59   : 	}

  0012e	eb 3a		 jmp	 SHORT $LN7@days
$LN6@days:

; 60   : 	else
; 61   : 		return number(birthday, birthmonth, year) - number(day, month, year);

  00130	44 8b 85 30 01
	00 00		 mov	 r8d, DWORD PTR year$[rbp]
  00137	8b 55 24	 mov	 edx, DWORD PTR birthmonth$[rbp]
  0013a	8b 4d 04	 mov	 ecx, DWORD PTR birthday$[rbp]
  0013d	e8 00 00 00 00	 call	 ?number@@YAHHHH@Z	; number
  00142	89 85 f4 00 00
	00		 mov	 DWORD PTR tv95[rbp], eax
  00148	44 8b 85 30 01
	00 00		 mov	 r8d, DWORD PTR year$[rbp]
  0014f	8b 95 28 01 00
	00		 mov	 edx, DWORD PTR month$[rbp]
  00155	8b 8d 20 01 00
	00		 mov	 ecx, DWORD PTR day$[rbp]
  0015b	e8 00 00 00 00	 call	 ?number@@YAHHHH@Z	; number
  00160	8b 8d f4 00 00
	00		 mov	 ecx, DWORD PTR tv95[rbp]
  00166	2b c8		 sub	 ecx, eax
  00168	8b c1		 mov	 eax, ecx
$LN7@days:
$LN5@days:
$LN3@days:
$LN1@days:

; 62   : }

  0016a	48 8d a5 08 01
	00 00		 lea	 rsp, QWORD PTR [rbp+264]
  00171	5f		 pop	 rdi
  00172	5d		 pop	 rbp
  00173	c3		 ret	 0
?days@@YAHHHH@Z ENDP					; days
_TEXT	ENDS
; Function compile flags: /Odtp /RTCsu /ZI
; File D:\\  \1\1\data\data.cpp
;	COMDAT ?number@@YAHHHH@Z
_TEXT	SEGMENT
serial$ = 4
i$1 = 36
day$ = 288
month$ = 296
year$ = 304
?number@@YAHHHH@Z PROC					; number, COMDAT

; 39   : int number(int day, int month, int year) {

$LN8:
  00000	44 89 44 24 18	 mov	 DWORD PTR [rsp+24], r8d
  00005	89 54 24 10	 mov	 DWORD PTR [rsp+16], edx
  00009	89 4c 24 08	 mov	 DWORD PTR [rsp+8], ecx
  0000d	55		 push	 rbp
  0000e	57		 push	 rdi
  0000f	48 81 ec 28 01
	00 00		 sub	 rsp, 296		; 00000128H
  00016	48 8d 6c 24 20	 lea	 rbp, QWORD PTR [rsp+32]
  0001b	48 8d 0d 00 00
	00 00		 lea	 rcx, OFFSET FLAT:__182DED94_data@cpp
  00022	e8 00 00 00 00	 call	 __CheckForDebuggerJustMyCode

; 40   : 	int serial = 0;

  00027	c7 45 04 00 00
	00 00		 mov	 DWORD PTR serial$[rbp], 0

; 41   : 	for (int i = 0; (i + 1) < month; i++)

  0002e	c7 45 24 00 00
	00 00		 mov	 DWORD PTR i$1[rbp], 0
  00035	eb 08		 jmp	 SHORT $LN4@number
$LN2@number:
  00037	8b 45 24	 mov	 eax, DWORD PTR i$1[rbp]
  0003a	ff c0		 inc	 eax
  0003c	89 45 24	 mov	 DWORD PTR i$1[rbp], eax
$LN4@number:
  0003f	8b 45 24	 mov	 eax, DWORD PTR i$1[rbp]
  00042	ff c0		 inc	 eax
  00044	3b 85 28 01 00
	00		 cmp	 eax, DWORD PTR month$[rbp]
  0004a	7d 1a		 jge	 SHORT $LN3@number

; 42   : 		serial = serial + twelve[i];

  0004c	48 63 45 24	 movsxd	 rax, DWORD PTR i$1[rbp]
  00050	48 8d 0d 00 00
	00 00		 lea	 rcx, OFFSET FLAT:?twelve@@3PAHA ; twelve
  00057	8b 04 81	 mov	 eax, DWORD PTR [rcx+rax*4]
  0005a	8b 4d 04	 mov	 ecx, DWORD PTR serial$[rbp]
  0005d	03 c8		 add	 ecx, eax
  0005f	8b c1		 mov	 eax, ecx
  00061	89 45 04	 mov	 DWORD PTR serial$[rbp], eax
  00064	eb d1		 jmp	 SHORT $LN2@number
$LN3@number:

; 43   : 	if (month > 2 && leap(year))

  00066	83 bd 28 01 00
	00 02		 cmp	 DWORD PTR month$[rbp], 2
  0006d	7e 23		 jle	 SHORT $LN5@number
  0006f	8b 8d 30 01 00
	00		 mov	 ecx, DWORD PTR year$[rbp]
  00075	e8 00 00 00 00	 call	 ?leap@@YA_NH@Z		; leap
  0007a	0f b6 c0	 movzx	 eax, al
  0007d	85 c0		 test	 eax, eax
  0007f	74 11		 je	 SHORT $LN5@number

; 44   : 		return serial + day + 1;

  00081	8b 45 04	 mov	 eax, DWORD PTR serial$[rbp]
  00084	8b 8d 20 01 00
	00		 mov	 ecx, DWORD PTR day$[rbp]
  0008a	8d 44 08 01	 lea	 eax, DWORD PTR [rax+rcx+1]
  0008e	eb 0f		 jmp	 SHORT $LN1@number
  00090	eb 0d		 jmp	 SHORT $LN6@number
$LN5@number:

; 45   : 	else
; 46   : 		return serial + day;

  00092	8b 85 20 01 00
	00		 mov	 eax, DWORD PTR day$[rbp]
  00098	8b 4d 04	 mov	 ecx, DWORD PTR serial$[rbp]
  0009b	03 c8		 add	 ecx, eax
  0009d	8b c1		 mov	 eax, ecx
$LN6@number:
$LN1@number:

; 47   : }

  0009f	48 8d a5 08 01
	00 00		 lea	 rsp, QWORD PTR [rbp+264]
  000a6	5f		 pop	 rdi
  000a7	5d		 pop	 rbp
  000a8	c3		 ret	 0
?number@@YAHHHH@Z ENDP					; number
_TEXT	ENDS
; Function compile flags: /Odtp /RTCsu /ZI
; File D:\\  \1\1\data\data.cpp
;	COMDAT ?leap@@YA_NH@Z
_TEXT	SEGMENT
year$ = 224
?leap@@YA_NH@Z PROC					; leap, COMDAT

; 33   : bool leap(int year) {

$LN5:
  00000	89 4c 24 08	 mov	 DWORD PTR [rsp+8], ecx
  00004	55		 push	 rbp
  00005	57		 push	 rdi
  00006	48 81 ec e8 00
	00 00		 sub	 rsp, 232		; 000000e8H
  0000d	48 8d 6c 24 20	 lea	 rbp, QWORD PTR [rsp+32]
  00012	48 8d 0d 00 00
	00 00		 lea	 rcx, OFFSET FLAT:__182DED94_data@cpp
  00019	e8 00 00 00 00	 call	 __CheckForDebuggerJustMyCode

; 34   : 	if (year % 4 == 0)

  0001e	8b 85 e0 00 00
	00		 mov	 eax, DWORD PTR year$[rbp]
  00024	99		 cdq
  00025	83 e2 03	 and	 edx, 3
  00028	03 c2		 add	 eax, edx
  0002a	83 e0 03	 and	 eax, 3
  0002d	2b c2		 sub	 eax, edx
  0002f	85 c0		 test	 eax, eax
  00031	75 06		 jne	 SHORT $LN2@leap

; 35   : 		return true;

  00033	b0 01		 mov	 al, 1
  00035	eb 04		 jmp	 SHORT $LN1@leap
  00037	eb 02		 jmp	 SHORT $LN3@leap
$LN2@leap:

; 36   : 	else
; 37   : 		return false;

  00039	32 c0		 xor	 al, al
$LN3@leap:
$LN1@leap:

; 38   : }

  0003b	48 8d a5 c8 00
	00 00		 lea	 rsp, QWORD PTR [rbp+200]
  00042	5f		 pop	 rdi
  00043	5d		 pop	 rbp
  00044	c3		 ret	 0
?leap@@YA_NH@Z ENDP					; leap
_TEXT	ENDS
; Function compile flags: /Odtp /RTCsu /ZI
; File D:\\  \1\1\data\data.cpp
;	COMDAT ?split@@YAXH@Z
_TEXT	SEGMENT
daydelta$ = 4
monthyeardelta$ = 36
date$ = 288
?split@@YAXH@Z PROC					; split, COMDAT

; 27   : void split(int date) {

$LN3:
  00000	89 4c 24 08	 mov	 DWORD PTR [rsp+8], ecx
  00004	55		 push	 rbp
  00005	57		 push	 rdi
  00006	48 81 ec 28 01
	00 00		 sub	 rsp, 296		; 00000128H
  0000d	48 8d 6c 24 20	 lea	 rbp, QWORD PTR [rsp+32]
  00012	48 8d 0d 00 00
	00 00		 lea	 rcx, OFFSET FLAT:__182DED94_data@cpp
  00019	e8 00 00 00 00	 call	 __CheckForDebuggerJustMyCode

; 28   : 	int daydelta = 1000000, monthyeardelta = 10000;

  0001e	c7 45 04 40 42
	0f 00		 mov	 DWORD PTR daydelta$[rbp], 1000000 ; 000f4240H
  00025	c7 45 24 10 27
	00 00		 mov	 DWORD PTR monthyeardelta$[rbp], 10000 ; 00002710H

; 29   : 	day = date / daydelta;

  0002c	8b 85 20 01 00
	00		 mov	 eax, DWORD PTR date$[rbp]
  00032	99		 cdq
  00033	f7 7d 04	 idiv	 DWORD PTR daydelta$[rbp]
  00036	89 05 00 00 00
	00		 mov	 DWORD PTR ?day@@3HA, eax ; day

; 30   : 	month = date / monthyeardelta - day * 100;

  0003c	8b 85 20 01 00
	00		 mov	 eax, DWORD PTR date$[rbp]
  00042	99		 cdq
  00043	f7 7d 24	 idiv	 DWORD PTR monthyeardelta$[rbp]
  00046	6b 0d 00 00 00
	00 64		 imul	 ecx, DWORD PTR ?day@@3HA, 100 ; day, 00000064H
  0004d	2b c1		 sub	 eax, ecx
  0004f	89 05 00 00 00
	00		 mov	 DWORD PTR ?month@@3HA, eax ; month

; 31   : 	year = date - (date / monthyeardelta) * monthyeardelta;

  00055	8b 85 20 01 00
	00		 mov	 eax, DWORD PTR date$[rbp]
  0005b	99		 cdq
  0005c	f7 7d 24	 idiv	 DWORD PTR monthyeardelta$[rbp]
  0005f	0f af 45 24	 imul	 eax, DWORD PTR monthyeardelta$[rbp]
  00063	8b 8d 20 01 00
	00		 mov	 ecx, DWORD PTR date$[rbp]
  00069	2b c8		 sub	 ecx, eax
  0006b	8b c1		 mov	 eax, ecx
  0006d	89 05 00 00 00
	00		 mov	 DWORD PTR ?year@@3HA, eax ; year

; 32   : }

  00073	48 8d a5 08 01
	00 00		 lea	 rsp, QWORD PTR [rbp+264]
  0007a	5f		 pop	 rdi
  0007b	5d		 pop	 rbp
  0007c	c3		 ret	 0
?split@@YAXH@Z ENDP					; split
_TEXT	ENDS
; Function compile flags: /Odtp /RTCsu /ZI
; File C:\Program Files\Microsoft Visual Studio\2022\Community\VC\Tools\MSVC\14.34.31933\include\xstring
;	COMDAT ?eof@?$_Narrow_char_traits@DH@std@@SAHXZ
_TEXT	SEGMENT
?eof@?$_Narrow_char_traits@DH@std@@SAHXZ PROC		; std::_Narrow_char_traits<char,int>::eof, COMDAT

; 488  :     _NODISCARD static constexpr int_type eof() noexcept {

$LN3:
  00000	40 55		 push	 rbp
  00002	57		 push	 rdi
  00003	48 81 ec e8 00
	00 00		 sub	 rsp, 232		; 000000e8H
  0000a	48 8d 6c 24 20	 lea	 rbp, QWORD PTR [rsp+32]
  0000f	48 8d 0d 00 00
	00 00		 lea	 rcx, OFFSET FLAT:__B71DB0E4_xstring
  00016	e8 00 00 00 00	 call	 __CheckForDebuggerJustMyCode

; 489  :         return static_cast<int_type>(EOF);

  0001b	b8 ff ff ff ff	 mov	 eax, -1

; 490  :     }

  00020	48 8d a5 c8 00
	00 00		 lea	 rsp, QWORD PTR [rbp+200]
  00027	5f		 pop	 rdi
  00028	5d		 pop	 rbp
  00029	c3		 ret	 0
?eof@?$_Narrow_char_traits@DH@std@@SAHXZ ENDP		; std::_Narrow_char_traits<char,int>::eof
_TEXT	ENDS
; Function compile flags: /Odtp /RTCsu /ZI
; File C:\Program Files\Microsoft Visual Studio\2022\Community\VC\Tools\MSVC\14.34.31933\include\xstring
;	COMDAT ?eq_int_type@?$_Narrow_char_traits@DH@std@@SA_NAEBH0@Z
_TEXT	SEGMENT
tv65 = 192
_Left$ = 240
_Right$ = 248
?eq_int_type@?$_Narrow_char_traits@DH@std@@SA_NAEBH0@Z PROC ; std::_Narrow_char_traits<char,int>::eq_int_type, COMDAT

; 480  :     _NODISCARD static constexpr bool eq_int_type(const int_type& _Left, const int_type& _Right) noexcept {

$LN5:
  00000	48 89 54 24 10	 mov	 QWORD PTR [rsp+16], rdx
  00005	48 89 4c 24 08	 mov	 QWORD PTR [rsp+8], rcx
  0000a	55		 push	 rbp
  0000b	57		 push	 rdi
  0000c	48 81 ec f8 00
	00 00		 sub	 rsp, 248		; 000000f8H
  00013	48 8d 6c 24 20	 lea	 rbp, QWORD PTR [rsp+32]
  00018	48 8d 0d 00 00
	00 00		 lea	 rcx, OFFSET FLAT:__B71DB0E4_xstring
  0001f	e8 00 00 00 00	 call	 __CheckForDebuggerJustMyCode

; 481  :         return _Left == _Right;

  00024	48 8b 85 f0 00
	00 00		 mov	 rax, QWORD PTR _Left$[rbp]
  0002b	48 8b 8d f8 00
	00 00		 mov	 rcx, QWORD PTR _Right$[rbp]
  00032	8b 09		 mov	 ecx, DWORD PTR [rcx]
  00034	39 08		 cmp	 DWORD PTR [rax], ecx
  00036	75 0c		 jne	 SHORT $LN3@eq_int_typ
  00038	c7 85 c0 00 00
	00 01 00 00 00	 mov	 DWORD PTR tv65[rbp], 1
  00042	eb 0a		 jmp	 SHORT $LN4@eq_int_typ
$LN3@eq_int_typ:
  00044	c7 85 c0 00 00
	00 00 00 00 00	 mov	 DWORD PTR tv65[rbp], 0
$LN4@eq_int_typ:
  0004e	0f b6 85 c0 00
	00 00		 movzx	 eax, BYTE PTR tv65[rbp]

; 482  :     }

  00055	48 8d a5 d8 00
	00 00		 lea	 rsp, QWORD PTR [rbp+216]
  0005c	5f		 pop	 rdi
  0005d	5d		 pop	 rbp
  0005e	c3		 ret	 0
?eq_int_type@?$_Narrow_char_traits@DH@std@@SA_NAEBH0@Z ENDP ; std::_Narrow_char_traits<char,int>::eq_int_type
_TEXT	ENDS
; Function compile flags: /Odtp /RTCsu /ZI
; File C:\Program Files\Microsoft Visual Studio\2022\Community\VC\Tools\MSVC\14.34.31933\include\xstring
;	COMDAT ?length@?$_Narrow_char_traits@DH@std@@SA_KQEBD@Z
_TEXT	SEGMENT
_First$ = 224
?length@?$_Narrow_char_traits@DH@std@@SA_KQEBD@Z PROC	; std::_Narrow_char_traits<char,int>::length, COMDAT

; 402  :     _NODISCARD static _CONSTEXPR17 size_t length(_In_z_ const _Elem* const _First) noexcept /* strengthened */ {

$LN3:
  00000	48 89 4c 24 08	 mov	 QWORD PTR [rsp+8], rcx
  00005	55		 push	 rbp
  00006	57		 push	 rdi
  00007	48 81 ec e8 00
	00 00		 sub	 rsp, 232		; 000000e8H
  0000e	48 8d 6c 24 20	 lea	 rbp, QWORD PTR [rsp+32]
  00013	48 8d 0d 00 00
	00 00		 lea	 rcx, OFFSET FLAT:__B71DB0E4_xstring
  0001a	e8 00 00 00 00	 call	 __CheckForDebuggerJustMyCode

; 403  :         // find length of null-terminated string
; 404  : #if _HAS_CXX17
; 405  : #ifdef __cpp_char8_t
; 406  :         if constexpr (is_same_v<_Elem, char8_t>) {
; 407  : #if _HAS_U8_INTRINSICS
; 408  :             return __builtin_u8strlen(_First);
; 409  : #else // ^^^ use u8 intrinsics / no u8 intrinsics vvv
; 410  :             return _Primary_char_traits::length(_First);
; 411  : #endif // _HAS_U8_INTRINSICS
; 412  :         } else
; 413  : #endif // __cpp_char8_t
; 414  :         {
; 415  :             return __builtin_strlen(_First);
; 416  :         }
; 417  : #else // _HAS_CXX17
; 418  :         return _CSTD strlen(reinterpret_cast<const char*>(_First));

  0001f	48 8b 8d e0 00
	00 00		 mov	 rcx, QWORD PTR _First$[rbp]
  00026	e8 00 00 00 00	 call	 strlen

; 419  : #endif // _HAS_CXX17
; 420  :     }

  0002b	48 8d a5 c8 00
	00 00		 lea	 rsp, QWORD PTR [rbp+200]
  00032	5f		 pop	 rdi
  00033	5d		 pop	 rbp
  00034	c3		 ret	 0
?length@?$_Narrow_char_traits@DH@std@@SA_KQEBD@Z ENDP	; std::_Narrow_char_traits<char,int>::length
_TEXT	ENDS
; Function compile flags: /Odtp /RTCsu /ZI
; File D:\\  \1\1\data\data.cpp
;	COMDAT ?__empty_global_delete@@YAXPEAX_K@Z
_TEXT	SEGMENT
__formal$ = 224
__formal$ = 232
?__empty_global_delete@@YAXPEAX_K@Z PROC		; __empty_global_delete, COMDAT

$LN3:
  00000	48 89 54 24 10	 mov	 QWORD PTR [rsp+16], rdx
  00005	48 89 4c 24 08	 mov	 QWORD PTR [rsp+8], rcx
  0000a	55		 push	 rbp
  0000b	57		 push	 rdi
  0000c	48 81 ec e8 00
	00 00		 sub	 rsp, 232		; 000000e8H
  00013	48 8d 6c 24 20	 lea	 rbp, QWORD PTR [rsp+32]
  00018	48 8d 0d 00 00
	00 00		 lea	 rcx, OFFSET FLAT:__182DED94_data@cpp
  0001f	e8 00 00 00 00	 call	 __CheckForDebuggerJustMyCode
  00024	48 8d a5 c8 00
	00 00		 lea	 rsp, QWORD PTR [rbp+200]
  0002b	5f		 pop	 rdi
  0002c	5d		 pop	 rbp
  0002d	c3		 ret	 0
?__empty_global_delete@@YAXPEAX_K@Z ENDP		; __empty_global_delete
_TEXT	ENDS
; Function compile flags: /Odtp /RTCsu /ZI
; File D:\\  \1\1\data\data.cpp
;	COMDAT ?__empty_global_delete@@YAXPEAX@Z
_TEXT	SEGMENT
__formal$ = 224
?__empty_global_delete@@YAXPEAX@Z PROC			; __empty_global_delete, COMDAT

$LN3:
  00000	48 89 4c 24 08	 mov	 QWORD PTR [rsp+8], rcx
  00005	55		 push	 rbp
  00006	57		 push	 rdi
  00007	48 81 ec e8 00
	00 00		 sub	 rsp, 232		; 000000e8H
  0000e	48 8d 6c 24 20	 lea	 rbp, QWORD PTR [rsp+32]
  00013	48 8d 0d 00 00
	00 00		 lea	 rcx, OFFSET FLAT:__182DED94_data@cpp
  0001a	e8 00 00 00 00	 call	 __CheckForDebuggerJustMyCode
  0001f	48 8d a5 c8 00
	00 00		 lea	 rsp, QWORD PTR [rbp+200]
  00026	5f		 pop	 rdi
  00027	5d		 pop	 rbp
  00028	c3		 ret	 0
?__empty_global_delete@@YAXPEAX@Z ENDP			; __empty_global_delete
_TEXT	ENDS
END
